(lp0
(I157
I102
tp1
a(I157
I103
tp2
a(I156
I103
tp3
a(I158
I103
tp4
a(I159
I103
tp5
a(I159
I104
tp6
a(I159
I105
tp7
a(I160
I105
tp8
a(I161
I105
tp9
a(I161
I106
tp10
a(I162
I106
tp11
a(I163
I106
tp12
a(I164
I106
tp13
a(I163
I107
tp14
a(I162
I107
tp15
a(I162
I108
tp16
a(I162
I109
tp17
a(I161
I109
tp18
a(I160
I109
tp19
a(I159
I109
tp20
a(I158
I109
tp21
a(I163
I108
tp22
a(I163
I109
tp23
a(I164
I109
tp24
a(I164
I108
tp25
a(I165
I109
tp26
a(I165
I108
tp27
a(I165
I110
tp28
a(I166
I110
tp29
a(I166
I111
tp30
a(I166
I112
tp31
a(I166
I109
tp32
a(I166
I108
tp33
a(I167
I108
tp34
a(I168
I108
tp35
a(I167
I109
tp36
a(I168
I109
tp37
a(I169
I109
tp38
a(I169
I110
tp39
a(I169
I111
tp40
a(I170
I109
tp41
a(I170
I108
tp42
a(I169
I108
tp43
a(I169
I107
tp44
a(I169
I106
tp45
a(I170
I106
tp46
a(I170
I105
tp47
a(I171
I105
tp48
a(I171
I104
tp49
a(I172
I104
tp50
a(I171
I103
tp51
a(I172
I103
tp52
a(I171
I102
tp53
a(I172
I102
tp54
a(I172
I101
tp55
a(I172
I100
tp56
a(I173
I102
tp57
a(I173
I101
tp58
a(I173
I100
tp59
a(I173
I99
tp60
a(I173
I98
tp61
a(I174
I99
tp62
a(I174
I98
tp63
a(I174
I97
tp64
a(I170
I107
tp65
a(I171
I108
tp66
a(I171
I107
tp67
a(I171
I106
tp68
a(I170
I110
tp69
a(I171
I109
tp70
a(I171
I110
tp71
a(I172
I110
tp72
a(I171
I111
tp73
a(I172
I111
tp74
a(I173
I111
tp75
a(I174
I111
tp76
a(I174
I112
tp77
a(I175
I112
tp78
a(I175
I111
tp79
a(I176
I111
tp80
a(I177
I111
tp81
a(I177
I112
tp82
a(I178
I112
tp83
a(I179
I112
tp84
a(I180
I112
tp85
a(I181
I112
tp86
a(I181
I113
tp87
a(I182
I112
tp88
a(I182
I111
tp89
a(I182
I110
tp90
a(I182
I113
tp91
a(I183
I112
tp92
a(I184
I112
tp93
a(I183
I111
tp94
a(I184
I111
tp95
a(I185
I111
tp96
a(I185
I110
tp97
a(I186
I110
tp98
a(I186
I109
tp99
a(I187
I109
tp100
a(I188
I109
tp101
a(I187
I110
tp102
a(I185
I112
tp103
a(I183
I110
tp104
a(I184
I110
tp105
a(I183
I113
tp106
a(I184
I113
tp107
a(I183
I114
tp108
a(I184
I114
tp109
a(I183
I115
tp110
a(I184
I115
tp111
a(I184
I116
tp112
a(I184
I117
tp113
a(I185
I117
tp114
a(I185
I118
tp115
a(I184
I118
tp116
a(I185
I119
tp117
a(I185
I120
tp118
a(I186
I120
tp119
a(I187
I120
tp120
a(I187
I121
tp121
a(I187
I122
tp122
a(I187
I123
tp123
a(I188
I123
tp124
a(I189
I123
tp125
a(I189
I124
tp126
a(I190
I124
tp127
a(I191
I124
tp128
a(I191
I125
tp129
a(I192
I125
tp130
a(I192
I124
tp131
a(I193
I124
tp132
a(I194
I124
tp133
a(I194
I125
tp134
a(I195
I125
tp135
a(I195
I126
tp136
a(I195
I127
tp137
a(I195
I128
tp138
a(I195
I129
tp139
a(I195
I130
tp140
a(I196
I128
tp141
a(I197
I128
tp142
a(I197
I127
tp143
a(I197
I129
tp144
a(I196
I129
tp145
a(I196
I130
tp146
a(I197
I130
tp147
a(I196
I131
tp148
a(I195
I131
tp149
a(I197
I131
tp150
a(I196
I132
tp151
a(I196
I126
tp152
a(I197
I126
tp153
a(I196
I127
tp154
a(I195
I124
tp155
a(I196
I125
tp156
a(I197
I125
tp157
a(I197
I124
tp158
a(I198
I124
tp159
a(I198
I123
tp160
a(I198
I122
tp161
a(I198
I121
tp162
a(I198
I120
tp163
a(I197
I120
tp164
a(I196
I120
tp165
a(I198
I119
tp166
a(I197
I119
tp167
a(I199
I121
tp168
a(I199
I120
tp169
a(I196
I124
tp170
a(I196
I123
tp171
a(I196
I122
tp172
a(I196
I121
tp173
a(I197
I122
tp174
a(I197
I121
tp175
a(I195
I123
tp176
a(I195
I122
tp177
a(I194
I123
tp178
a(I197
I123
tp179
a(I193
I125
tp180
a(I188
I122
tp181
a(I186
I121
tp182
a(I186
I122
tp183
a(I184
I119
tp184
a(I186
I118
tp185
a(I186
I119
tp186
a(I183
I117
tp187
a(I185
I116
tp188
a(I185
I115
tp189
a(I183
I116
tp190
a(I182
I114
tp191
a(I181
I111
tp192
a(I181
I110
tp193
a(I180
I111
tp194
a(I179
I111
tp195
a(I180
I110
tp196
a(I178
I111
tp197
a(I176
I112
tp198
a(I172
I112
tp199
a(I173
I112
tp200
a(I170
I111
tp201
a(I167
I110
tp202
a(I168
I110
tp203
a(I167
I111
tp204
a(I168
I111
tp205
a(I168
I112
tp206
a(I168
I113
tp207
a(I168
I114
tp208
a(I169
I113
tp209
a(I167
I113
tp210
a(I167
I114
tp211
a(I166
I113
tp212
a(I166
I114
tp213
a(I166
I115
tp214
a(I167
I115
tp215
a(I168
I115
tp216
a(I169
I115
tp217
a(I169
I114
tp218
a(I169
I116
tp219
a(I170
I116
tp220
a(I169
I117
tp221
a(I169
I118
tp222
a(I170
I118
tp223
a(I170
I119
tp224
a(I171
I119
tp225
a(I171
I120
tp226
a(I171
I121
tp227
a(I171
I122
tp228
a(I171
I123
tp229
a(I171
I124
tp230
a(I172
I123
tp231
a(I173
I123
tp232
a(I172
I124
tp233
a(I173
I124
tp234
a(I174
I124
tp235
a(I174
I125
tp236
a(I173
I125
tp237
a(I174
I126
tp238
a(I175
I126
tp239
a(I175
I127
tp240
a(I176
I127
tp241
a(I176
I128
tp242
a(I177
I128
tp243
a(I177
I129
tp244
a(I178
I129
tp245
a(I178
I130
tp246
a(I179
I130
tp247
a(I180
I130
tp248
a(I180
I131
tp249
a(I181
I131
tp250
a(I182
I132
tp251
a(I172
I121
tp252
a(I172
I122
tp253
a(I170
I117
tp254
a(I168
I116
tp255
a(I166
I116
tp256
a(I165
I116
tp257
a(I165
I117
tp258
a(I165
I118
tp259
a(I165
I119
tp260
a(I164
I119
tp261
a(I164
I120
tp262
a(I163
I119
tp263
a(I163
I120
tp264
a(I162
I120
tp265
a(I162
I121
tp266
a(I163
I121
tp267
a(I162
I122
tp268
a(I162
I123
tp269
a(I161
I123
tp270
a(I161
I124
tp271
a(I160
I124
tp272
a(I160
I125
tp273
a(I159
I125
tp274
a(I159
I126
tp275
a(I158
I126
tp276
a(I157
I126
tp277
a(I157
I127
tp278
a(I156
I127
tp279
a(I157
I128
tp280
a(I156
I128
tp281
a(I156
I129
tp282
a(I155
I128
tp283
a(I157
I129
tp284
a(I157
I130
tp285
a(I156
I130
tp286
a(I156
I131
tp287
a(I155
I130
tp288
a(I155
I131
tp289
a(I155
I132
tp290
a(I155
I133
tp291
a(I155
I134
tp292
a(I155
I135
tp293
a(I155
I136
tp294
a(I155
I137
tp295
a(I155
I138
tp296
a(I155
I139
tp297
a(I155
I140
tp298
a(I155
I141
tp299
a(I155
I142
tp300
a(I155
I143
tp301
a(I155
I144
tp302
a(I155
I145
tp303
a(I155
I146
tp304
a(I155
I147
tp305
a(I155
I148
tp306
a(I155
I149
tp307
a(I156
I148
tp308
a(I156
I149
tp309
a(I156
I150
tp310
a(I156
I151
tp311
a(I155
I151
tp312
a(I155
I152
tp313
a(I155
I153
tp314
a(I156
I153
tp315
a(I156
I152
tp316
a(I156
I154
tp317
a(I155
I154
tp318
a(I156
I155
tp319
a(I155
I155
tp320
a(I156
I156
tp321
a(I155
I156
tp322
a(I155
I157
tp323
a(I155
I158
tp324
a(I155
I159
tp325
a(I155
I160
tp326
a(I155
I161
tp327
a(I155
I162
tp328
a(I155
I163
tp329
a(I155
I150
tp330
a(I156
I133
tp331
a(I157
I133
tp332
a(I156
I132
tp333
a(I155
I129
tp334
a(I154
I129
tp335
a(I154
I130
tp336
a(I158
I130
tp337
a(I158
I131
tp338
a(I157
I131
tp339
a(I158
I132
tp340
a(I157
I132
tp341
a(I158
I133
tp342
a(I159
I133
tp343
a(I159
I132
tp344
a(I160
I133
tp345
a(I161
I133
tp346
a(I162
I133
tp347
a(I163
I133
tp348
a(I163
I134
tp349
a(I164
I133
tp350
a(I165
I133
tp351
a(I164
I134
tp352
a(I165
I134
tp353
a(I166
I134
tp354
a(I166
I133
tp355
a(I167
I133
tp356
a(I168
I133
tp357
a(I166
I135
tp358
a(I167
I135
tp359
a(I166
I136
tp360
a(I167
I136
tp361
a(I168
I136
tp362
a(I169
I136
tp363
a(I170
I136
tp364
a(I170
I135
tp365
a(I168
I137
tp366
a(I168
I135
tp367
a(I168
I134
tp368
a(I169
I135
tp369
a(I169
I134
tp370
a(I170
I134
tp371
a(I171
I134
tp372
a(I172
I134
tp373
a(I171
I135
tp374
a(I169
I133
tp375
a(I170
I133
tp376
a(I166
I137
tp377
a(I167
I137
tp378
a(I166
I138
tp379
a(I165
I138
tp380
a(I165
I139
tp381
a(I164
I138
tp382
a(I163
I138
tp383
a(I164
I139
tp384
a(I163
I139
tp385
a(I164
I140
tp386
a(I164
I141
tp387
a(I165
I140
tp388
a(I166
I140
tp389
a(I167
I140
tp390
a(I168
I140
tp391
a(I168
I141
tp392
a(I169
I141
tp393
a(I170
I141
tp394
a(I171
I141
tp395
a(I171
I140
tp396
a(I172
I140
tp397
a(I172
I141
tp398
a(I173
I141
tp399
a(I173
I140
tp400
a(I174
I141
tp401
a(I175
I141
tp402
a(I174
I140
tp403
a(I175
I140
tp404
a(I176
I140
tp405
a(I176
I141
tp406
a(I174
I142
tp407
a(I175
I142
tp408
a(I172
I142
tp409
a(I172
I143
tp410
a(I173
I143
tp411
a(I171
I143
tp412
a(I171
I144
tp413
a(I171
I145
tp414
a(I170
I145
tp415
a(I170
I144
tp416
a(I170
I146
tp417
a(I169
I146
tp418
a(I169
I147
tp419
a(I168
I147
tp420
a(I167
I147
tp421
a(I167
I146
tp422
a(I167
I148
tp423
a(I166
I147
tp424
a(I166
I148
tp425
a(I165
I148
tp426
a(I166
I149
tp427
a(I165
I149
tp428
a(I164
I149
tp429
a(I166
I150
tp430
a(I165
I150
tp431
a(I166
I151
tp432
a(I167
I151
tp433
a(I168
I151
tp434
a(I167
I152
tp435
a(I166
I152
tp436
a(I165
I152
tp437
a(I164
I152
tp438
a(I164
I151
tp439
a(I163
I151
tp440
a(I163
I152
tp441
a(I162
I152
tp442
a(I161
I152
tp443
a(I163
I150
tp444
a(I164
I150
tp445
a(I168
I152
tp446
a(I169
I152
tp447
a(I169
I151
tp448
a(I170
I151
tp449
a(I170
I152
tp450
a(I171
I151
tp451
a(I172
I151
tp452
a(I173
I151
tp453
a(I174
I151
tp454
a(I175
I151
tp455
a(I173
I150
tp456
a(I174
I150
tp457
a(I175
I150
tp458
a(I176
I150
tp459
a(I177
I150
tp460
a(I177
I149
tp461
a(I178
I149
tp462
a(I179
I149
tp463
a(I179
I148
tp464
a(I180
I148
tp465
a(I181
I148
tp466
a(I182
I148
tp467
a(I183
I148
tp468
a(I183
I147
tp469
a(I184
I147
tp470
a(I184
I146
tp471
a(I185
I147
tp472
a(I185
I146
tp473
a(I186
I146
tp474
a(I185
I145
tp475
a(I186
I145
tp476
a(I187
I145
tp477
a(I188
I145
tp478
a(I189
I145
tp479
a(I189
I144
tp480
a(I190
I144
tp481
a(I190
I143
tp482
a(I189
I143
tp483
a(I191
I143
tp484
a(I192
I143
tp485
a(I192
I142
tp486
a(I193
I142
tp487
a(I192
I141
tp488
a(I193
I141
tp489
a(I194
I141
tp490
a(I194
I140
tp491
a(I194
I139
tp492
a(I195
I140
tp493
a(I195
I139
tp494
a(I196
I140
tp495
a(I196
I139
tp496
a(I196
I138
tp497
a(I195
I138
tp498
a(I197
I138
tp499
a(I197
I139
tp500
a(I198
I138
tp501
a(I196
I137
tp502
a(I197
I137
tp503
a(I198
I137
tp504
a(I199
I137
tp505
a(I199
I136
tp506
a(I199
I135
tp507
a(I200
I136
tp508
a(I201
I136
tp509
a(I200
I135
tp510
a(I201
I135
tp511
a(I202
I135
tp512
a(I202
I136
tp513
a(I202
I137
tp514
a(I202
I138
tp515
a(I202
I139
tp516
a(I202
I140
tp517
a(I202
I141
tp518
a(I203
I139
tp519
a(I203
I140
tp520
a(I203
I141
tp521
a(I203
I142
tp522
a(I204
I142
tp523
a(I204
I141
tp524
a(I203
I143
tp525
a(I204
I143
tp526
a(I205
I143
tp527
a(I205
I144
tp528
a(I204
I144
tp529
a(I205
I145
tp530
a(I205
I146
tp531
a(I204
I145
tp532
a(I206
I145
tp533
a(I206
I146
tp534
a(I206
I147
tp535
a(I207
I147
tp536
a(I207
I148
tp537
a(I207
I149
tp538
a(I208
I149
tp539
a(I208
I150
tp540
a(I209
I150
tp541
a(I209
I151
tp542
a(I210
I151
tp543
a(I210
I152
tp544
a(I211
I152
tp545
a(I211
I153
tp546
a(I212
I153
tp547
a(I212
I154
tp548
a(I208
I148
tp549
a(I206
I148
tp550
a(I201
I138
tp551
a(I202
I134
tp552
a(I203
I134
tp553
a(I203
I135
tp554
a(I203
I133
tp555
a(I204
I133
tp556
a(I205
I133
tp557
a(I204
I132
tp558
a(I203
I132
tp559
a(I202
I132
tp560
a(I205
I132
tp561
a(I204
I134
tp562
a(I205
I134
tp563
a(I206
I134
tp564
a(I207
I134
tp565
a(I207
I133
tp566
a(I207
I132
tp567
a(I206
I133
tp568
a(I206
I132
tp569
a(I208
I133
tp570
a(I208
I132
tp571
a(I209
I132
tp572
a(I210
I132
tp573
a(I209
I133
tp574
a(I208
I134
tp575
a(I209
I134
tp576
a(I210
I134
tp577
a(I211
I134
tp578
a(I211
I133
tp579
a(I212
I133
tp580
a(I213
I133
tp581
a(I213
I134
tp582
a(I214
I133
tp583
a(I214
I134
tp584
a(I215
I133
tp585
a(I216
I133
tp586
a(I216
I134
tp587
a(I217
I134
tp588
a(I218
I134
tp589
a(I219
I134
tp590
a(I217
I135
tp591
a(I216
I135
tp592
a(I215
I135
tp593
a(I218
I135
tp594
a(I219
I135
tp595
a(I220
I135
tp596
a(I220
I136
tp597
a(I221
I136
tp598
a(I221
I135
tp599
a(I222
I135
tp600
a(I222
I136
tp601
a(I223
I135
tp602
a(I224
I135
tp603
a(I225
I135
tp604
a(I225
I134
tp605
a(I226
I134
tp606
a(I227
I134
tp607
a(I228
I134
tp608
a(I227
I135
tp609
a(I228
I135
tp610
a(I227
I136
tp611
a(I226
I136
tp612
a(I227
I137
tp613
a(I228
I137
tp614
a(I228
I138
tp615
a(I229
I138
tp616
a(I230
I138
tp617
a(I230
I139
tp618
a(I231
I140
tp619
a(I232
I141
tp620
a(I233
I142
tp621
a(I234
I143
tp622
a(I228
I136
tp623
a(I229
I137
tp624
a(I229
I136
tp625
a(I230
I136
tp626
a(I230
I135
tp627
a(I229
I135
tp628
a(I229
I134
tp629
a(I230
I134
tp630
a(I231
I136
tp631
a(I231
I135
tp632
a(I232
I136
tp633
a(I233
I136
tp634
a(I233
I137
tp635
a(I234
I137
tp636
a(I234
I138
tp637
a(I235
I138
tp638
a(I235
I139
tp639
a(I236
I140
tp640
a(I237
I141
tp641
a(I238
I142
tp642
a(I232
I135
tp643
a(I232
I134
tp644
a(I232
I133
tp645
a(I233
I133
tp646
a(I234
I133
tp647
a(I233
I132
tp648
a(I232
I132
tp649
a(I234
I132
tp650
a(I235
I132
tp651
a(I235
I133
tp652
a(I236
I133
tp653
a(I236
I134
tp654
a(I237
I134
tp655
a(I237
I135
tp656
a(I237
I136
tp657
a(I238
I136
tp658
a(I239
I136
tp659
a(I238
I137
tp660
a(I239
I137
tp661
a(I240
I137
tp662
a(I241
I137
tp663
a(I240
I138
tp664
a(I241
I138
tp665
a(I241
I139
tp666
a(I242
I140
tp667
a(I243
I141
tp668
a(I244
I142
tp669
a(I245
I143
tp670
a(I246
I144
tp671
a(I240
I136
tp672
a(I241
I136
tp673
a(I240
I135
tp674
a(I239
I135
tp675
a(I241
I135
tp676
a(I242
I135
tp677
a(I242
I136
tp678
a(I242
I137
tp679
a(I243
I136
tp680
a(I243
I135
tp681
a(I244
I135
tp682
a(I244
I136
tp683
a(I245
I136
tp684
a(I244
I137
tp685
a(I244
I138
tp686
a(I245
I138
tp687
a(I245
I139
tp688
a(I246
I139
tp689
a(I246
I140
tp690
a(I247
I140
tp691
a(I248
I141
tp692
a(I249
I142
tp693
a(I250
I142
tp694
a(I251
I143
tp695
a(I252
I144
tp696
a(I243
I137
tp697
a(I245
I135
tp698
a(I246
I135
tp699
a(I246
I136
tp700
a(I247
I135
tp701
a(I247
I134
tp702
a(I247
I136
tp703
a(I248
I135
tp704
a(I248
I136
tp705
a(I248
I137
tp706
a(I247
I137
tp707
a(I249
I137
tp708
a(I249
I138
tp709
a(I250
I138
tp710
a(I250
I139
tp711
a(I251
I139
tp712
a(I252
I139
tp713
a(I252
I140
tp714
a(I253
I140
tp715
a(I253
I141
tp716
a(I254
I141
tp717
a(I254
I142
tp718
a(I255
I142
tp719
a(I256
I143
tp720
a(I257
I144
tp721
a(I246
I134
tp722
a(I245
I134
tp723
a(I246
I133
tp724
a(I245
I133
tp725
a(I247
I133
tp726
a(I248
I133
tp727
a(I249
I133
tp728
a(I250
I133
tp729
a(I250
I132
tp730
a(I250
I134
tp731
a(I251
I133
tp732
a(I251
I134
tp733
a(I252
I133
tp734
a(I252
I132
tp735
a(I253
I133
tp736
a(I253
I132
tp737
a(I253
I134
tp738
a(I253
I135
tp739
a(I253
I136
tp740
a(I254
I136
tp741
a(I254
I137
tp742
a(I255
I137
tp743
a(I256
I138
tp744
a(I257
I139
tp745
a(I258
I140
tp746
a(I259
I141
tp747
a(I260
I142
tp748
a(I261
I143
tp749
a(I254
I133
tp750
a(I254
I132
tp751
a(I255
I133
tp752
a(I255
I134
tp753
a(I256
I133
tp754
a(I257
I133
tp755
a(I256
I134
tp756
a(I257
I134
tp757
a(I258
I134
tp758
a(I257
I135
tp759
a(I258
I135
tp760
a(I259
I135
tp761
a(I259
I136
tp762
a(I260
I136
tp763
a(I260
I135
tp764
a(I261
I136
tp765
a(I261
I137
tp766
a(I262
I136
tp767
a(I262
I137
tp768
a(I263
I137
tp769
a(I263
I138
tp770
a(I264
I138
tp771
a(I264
I139
tp772
a(I265
I138
tp773
a(I265
I139
tp774
a(I266
I139
tp775
a(I266
I140
tp776
a(I265
I140
tp777
a(I267
I140
tp778
a(I267
I141
tp779
a(I268
I141
tp780
a(I268
I142
tp781
a(I269
I142
tp782
a(I270
I142
tp783
a(I270
I143
tp784
a(I271
I143
tp785
a(I271
I144
tp786
a(I272
I144
tp787
a(I272
I145
tp788
a(I273
I145
tp789
a(I273
I146
tp790
a(I274
I146
tp791
a(I274
I147
tp792
a(I275
I147
tp793
a(I275
I148
tp794
a(I276
I148
tp795
a(I276
I149
tp796
a(I277
I149
tp797
a(I277
I150
tp798
a(I278
I150
tp799
a(I279
I150
tp800
a(I279
I151
tp801
a(I280
I151
tp802
a(I279
I152
tp803
a(I278
I152
tp804
a(I279
I153
tp805
a(I280
I153
tp806
a(I281
I153
tp807
a(I280
I154
tp808
a(I281
I154
tp809
a(I280
I155
tp810
a(I281
I155
tp811
a(I280
I156
tp812
a(I281
I156
tp813
a(I282
I156
tp814
a(I282
I155
tp815
a(I282
I154
tp816
a(I283
I154
tp817
a(I283
I153
tp818
a(I284
I153
tp819
a(I284
I154
tp820
a(I283
I156
tp821
a(I283
I155
tp822
a(I284
I156
tp823
a(I282
I157
tp824
a(I281
I157
tp825
a(I281
I158
tp826
a(I281
I159
tp827
a(I281
I160
tp828
a(I282
I160
tp829
a(I282
I161
tp830
a(I282
I162
tp831
a(I282
I163
tp832
a(I282
I164
tp833
a(I281
I164
tp834
a(I280
I164
tp835
a(I282
I165
tp836
a(I281
I165
tp837
a(I280
I165
tp838
a(I279
I165
tp839
a(I279
I164
tp840
a(I278
I164
tp841
a(I278
I163
tp842
a(I277
I163
tp843
a(I276
I163
tp844
a(I276
I162
tp845
a(I275
I162
tp846
a(I275
I163
tp847
a(I274
I162
tp848
a(I274
I161
tp849
a(I273
I162
tp850
a(I273
I161
tp851
a(I272
I161
tp852
a(I272
I160
tp853
a(I271
I160
tp854
a(I271
I161
tp855
a(I270
I160
tp856
a(I270
I161
tp857
a(I269
I160
tp858
a(I269
I159
tp859
a(I268
I159
tp860
a(I268
I160
tp861
a(I267
I160
tp862
a(I266
I160
tp863
a(I265
I160
tp864
a(I267
I159
tp865
a(I266
I159
tp866
a(I265
I159
tp867
a(I264
I159
tp868
a(I264
I160
tp869
a(I263
I159
tp870
a(I264
I158
tp871
a(I263
I158
tp872
a(I262
I158
tp873
a(I262
I159
tp874
a(I261
I159
tp875
a(I260
I159
tp876
a(I260
I158
tp877
a(I259
I159
tp878
a(I258
I159
tp879
a(I257
I159
tp880
a(I256
I159
tp881
a(I257
I158
tp882
a(I256
I158
tp883
a(I255
I158
tp884
a(I255
I159
tp885
a(I254
I159
tp886
a(I254
I158
tp887
a(I253
I158
tp888
a(I253
I159
tp889
a(I252
I159
tp890
a(I251
I159
tp891
a(I252
I158
tp892
a(I251
I158
tp893
a(I250
I158
tp894
a(I250
I159
tp895
a(I249
I159
tp896
a(I248
I159
tp897
a(I247
I159
tp898
a(I246
I159
tp899
a(I246
I160
tp900
a(I245
I160
tp901
a(I245
I159
tp902
a(I244
I159
tp903
a(I243
I159
tp904
a(I244
I160
tp905
a(I243
I160
tp906
a(I242
I160
tp907
a(I241
I160
tp908
a(I240
I160
tp909
a(I239
I160
tp910
a(I238
I160
tp911
a(I237
I160
tp912
a(I236
I160
tp913
a(I235
I160
tp914
a(I236
I161
tp915
a(I235
I161
tp916
a(I234
I161
tp917
a(I233
I161
tp918
a(I232
I161
tp919
a(I231
I161
tp920
a(I230
I161
tp921
a(I229
I161
tp922
a(I228
I161
tp923
a(I227
I161
tp924
a(I226
I161
tp925
a(I226
I160
tp926
a(I227
I160
tp927
a(I225
I160
tp928
a(I224
I160
tp929
a(I223
I160
tp930
a(I222
I160
tp931
a(I222
I159
tp932
a(I221
I159
tp933
a(I220
I159
tp934
a(I220
I158
tp935
a(I219
I158
tp936
a(I218
I158
tp937
a(I218
I157
tp938
a(I217
I157
tp939
a(I216
I157
tp940
a(I216
I156
tp941
a(I215
I156
tp942
a(I215
I155
tp943
a(I214
I155
tp944
a(I213
I155
tp945
a(I225
I161
tp946
a(I234
I160
tp947
a(I237
I161
tp948
a(I247
I160
tp949
a(I248
I160
tp950
a(I249
I160
tp951
a(I259
I158
tp952
a(I258
I158
tp953
a(I261
I158
tp954
a(I277
I164
tp955
a(I279
I163
tp956
a(I281
I163
tp957
a(I280
I163
tp958
a(I281
I162
tp959
a(I283
I160
tp960
a(I283
I159
tp961
a(I284
I159
tp962
a(I285
I159
tp963
a(I286
I159
tp964
a(I286
I160
tp965
a(I287
I160
tp966
a(I286
I158
tp967
a(I287
I158
tp968
a(I287
I159
tp969
a(I287
I157
tp970
a(I288
I158
tp971
a(I288
I159
tp972
a(I288
I160
tp973
a(I285
I158
tp974
a(I286
I157
tp975
a(I286
I156
tp976
a(I285
I156
tp977
a(I285
I155
tp978
a(I285
I154
tp979
a(I284
I155
tp980
a(I286
I155
tp981
a(I284
I158
tp982
a(I284
I160
tp983
a(I284
I161
tp984
a(I285
I161
tp985
a(I285
I160
tp986
a(I283
I161
tp987
a(I281
I161
tp988
a(I280
I160
tp989
a(I280
I161
tp990
a(I280
I162
tp991
a(I279
I162
tp992
a(I282
I159
tp993
a(I283
I157
tp994
a(I283
I158
tp995
a(I284
I157
tp996
a(I285
I157
tp997
a(I282
I158
tp998
a(I280
I152
tp999
a(I280
I150
tp1000
a(I281
I150
tp1001
a(I281
I151
tp1002
a(I281
I152
tp1003
a(I282
I152
tp1004
a(I282
I153
tp1005
a(I283
I152
tp1006
a(I282
I151
tp1007
a(I283
I151
tp1008
a(I282
I150
tp1009
a(I280
I149
tp1010
a(I281
I149
tp1011
a(I280
I148
tp1012
a(I278
I151
tp1013
a(I269
I143
tp1014
a(I259
I134
tp1015
a(I252
I134
tp1016
a(I252
I135
tp1017
a(I251
I132
tp1018
a(I251
I131
tp1019
a(I250
I131
tp1020
a(I249
I132
tp1021
a(I248
I134
tp1022
a(I248
I132
tp1023
a(I243
I134
tp1024
a(I244
I134
tp1025
a(I238
I134
tp1026
a(I238
I135
tp1027
a(I235
I134
tp1028
a(I236
I135
tp1029
a(I233
I131
tp1030
a(I232
I131
tp1031
a(I232
I130
tp1032
a(I231
I133
tp1033
a(I230
I133
tp1034
a(I231
I134
tp1035
a(I233
I134
tp1036
a(I225
I136
tp1037
a(I226
I135
tp1038
a(I223
I136
tp1039
a(I223
I137
tp1040
a(I224
I137
tp1041
a(I225
I137
tp1042
a(I225
I138
tp1043
a(I226
I139
tp1044
a(I227
I140
tp1045
a(I228
I141
tp1046
a(I229
I142
tp1047
a(I230
I143
tp1048
a(I224
I136
tp1049
a(I220
I134
tp1050
a(I215
I134
tp1051
a(I212
I134
tp1052
a(I210
I133
tp1053
a(I202
I133
tp1054
a(I201
I133
tp1055
a(I200
I134
tp1056
a(I200
I133
tp1057
a(I201
I134
tp1058
a(I199
I134
tp1059
a(I200
I137
tp1060
a(I201
I137
tp1061
a(I198
I136
tp1062
a(I197
I136
tp1063
a(I198
I135
tp1064
a(I192
I140
tp1065
a(I193
I140
tp1066
a(I191
I141
tp1067
a(I190
I142
tp1068
a(I191
I142
tp1069
a(I188
I144
tp1070
a(I188
I143
tp1071
a(I187
I146
tp1072
a(I187
I144
tp1073
a(I184
I148
tp1074
a(I182
I147
tp1075
a(I181
I147
tp1076
a(I180
I149
tp1077
a(I181
I149
tp1078
a(I178
I150
tp1079
a(I179
I150
tp1080
a(I176
I149
tp1081
a(I172
I150
tp1082
a(I165
I151
tp1083
a(I169
I145
tp1084
a(I168
I145
tp1085
a(I168
I146
tp1086
a(I172
I144
tp1087
a(I173
I142
tp1088
a(I171
I142
tp1089
a(I169
I140
tp1090
a(I170
I140
tp1091
a(I167
I141
tp1092
a(I166
I141
tp1093
a(I165
I141
tp1094
a(I163
I140
tp1095
a(I163
I141
tp1096
a(I162
I141
tp1097
a(I162
I140
tp1098
a(I162
I142
tp1099
a(I161
I142
tp1100
a(I161
I141
tp1101
a(I163
I142
tp1102
a(I164
I142
tp1103
a(I164
I137
tp1104
a(I165
I136
tp1105
a(I165
I137
tp1106
a(I167
I134
tp1107
a(I160
I132
tp1108
a(I159
I130
tp1109
a(I159
I129
tp1110
a(I160
I129
tp1111
a(I161
I129
tp1112
a(I162
I129
tp1113
a(I162
I128
tp1114
a(I161
I128
tp1115
a(I163
I128
tp1116
a(I164
I128
tp1117
a(I164
I127
tp1118
a(I165
I127
tp1119
a(I166
I127
tp1120
a(I166
I128
tp1121
a(I167
I127
tp1122
a(I168
I127
tp1123
a(I167
I126
tp1124
a(I168
I126
tp1125
a(I169
I126
tp1126
a(I169
I125
tp1127
a(I170
I125
tp1128
a(I168
I125
tp1129
a(I165
I128
tp1130
a(I158
I129
tp1131
a(I164
I118
tp1132
a(I167
I116
tp1133
a(I167
I112
tp1134
a(I167
I107
tp1135
a(I166
I107
tp1136
a(I164
I110
tp1137
a(I164
I107
tp1138
a(I165
I107
tp1139
a(I163
I105
tp1140
a(I164
I105
tp1141
a(I165
I105
tp1142
a(I165
I104
tp1143
a(I165
I106
tp1144
a(I166
I106
tp1145
a(I163
I104
tp1146
a(I164
I104
tp1147
a(I163
I103
tp1148
a(I162
I103
tp1149
a(I164
I103
tp1150
a(I164
I102
tp1151
a(I160
I104
tp1152
a(I158
I104
tp1153
a(I156
I102
tp1154
a(I156
I101
tp1155
a(I155
I101
tp1156
a(I154
I101
tp1157
a(I154
I102
tp1158
a(I153
I102
tp1159
a(I153
I101
tp1160
a(I153
I103
tp1161
a(I152
I102
tp1162
a(I152
I103
tp1163
a(I152
I104
tp1164
a(I151
I104
tp1165
a(I152
I105
tp1166
a(I151
I105
tp1167
a(I152
I106
tp1168
a(I151
I106
tp1169
a(I152
I107
tp1170
a(I152
I108
tp1171
a(I152
I109
tp1172
a(I151
I109
tp1173
a(I151
I110
tp1174
a(I150
I109
tp1175
a(I150
I108
tp1176
a(I150
I107
tp1177
a(I151
I107
tp1178
a(I150
I106
tp1179
a(I150
I105
tp1180
a(I149
I108
tp1181
a(I149
I107
tp1182
a(I149
I106
tp1183
a(I148
I108
tp1184
a(I147
I108
tp1185
a(I146
I108
tp1186
a(I146
I109
tp1187
a(I147
I109
tp1188
a(I145
I109
tp1189
a(I144
I109
tp1190
a(I143
I109
tp1191
a(I142
I109
tp1192
a(I141
I109
tp1193
a(I140
I109
tp1194
a(I139
I109
tp1195
a(I138
I109
tp1196
a(I139
I110
tp1197
a(I138
I110
tp1198
a(I137
I110
tp1199
a(I136
I110
tp1200
a(I135
I110
tp1201
a(I135
I111
tp1202
a(I134
I110
tp1203
a(I133
I110
tp1204
a(I133
I111
tp1205
a(I132
I111
tp1206
a(I132
I112
tp1207
a(I131
I112
tp1208
a(I131
I111
tp1209
a(I131
I113
tp1210
a(I130
I113
tp1211
a(I129
I113
tp1212
a(I128
I113
tp1213
a(I128
I114
tp1214
a(I127
I114
tp1215
a(I126
I114
tp1216
a(I127
I115
tp1217
a(I128
I115
tp1218
a(I129
I115
tp1219
a(I126
I115
tp1220
a(I127
I116
tp1221
a(I128
I116
tp1222
a(I126
I116
tp1223
a(I127
I117
tp1224
a(I128
I117
tp1225
a(I126
I117
tp1226
a(I126
I118
tp1227
a(I126
I119
tp1228
a(I126
I120
tp1229
a(I126
I121
tp1230
a(I126
I122
tp1231
a(I126
I123
tp1232
a(I126
I124
tp1233
a(I125
I123
tp1234
a(I125
I124
tp1235
a(I125
I125
tp1236
a(I126
I125
tp1237
a(I125
I126
tp1238
a(I126
I126
tp1239
a(I126
I127
tp1240
a(I126
I128
tp1241
a(I127
I128
tp1242
a(I126
I129
tp1243
a(I127
I129
tp1244
a(I127
I130
tp1245
a(I127
I131
tp1246
a(I127
I132
tp1247
a(I128
I131
tp1248
a(I128
I132
tp1249
a(I128
I133
tp1250
a(I128
I134
tp1251
a(I129
I134
tp1252
a(I129
I133
tp1253
a(I129
I135
tp1254
a(I130
I135
tp1255
a(I130
I134
tp1256
a(I130
I136
tp1257
a(I131
I136
tp1258
a(I131
I137
tp1259
a(I130
I137
tp1260
a(I131
I138
tp1261
a(I132
I138
tp1262
a(I132
I139
tp1263
a(I133
I139
tp1264
a(I133
I140
tp1265
a(I132
I140
tp1266
a(I133
I141
tp1267
a(I134
I141
tp1268
a(I134
I142
tp1269
a(I134
I143
tp1270
a(I134
I144
tp1271
a(I135
I144
tp1272
a(I136
I144
tp1273
a(I135
I145
tp1274
a(I134
I145
tp1275
a(I136
I145
tp1276
a(I136
I146
tp1277
a(I136
I147
tp1278
a(I137
I146
tp1279
a(I137
I147
tp1280
a(I137
I148
tp1281
a(I135
I146
tp1282
a(I134
I146
tp1283
a(I133
I146
tp1284
a(I133
I145
tp1285
a(I132
I146
tp1286
a(I132
I145
tp1287
a(I131
I146
tp1288
a(I131
I145
tp1289
a(I131
I144
tp1290
a(I132
I144
tp1291
a(I130
I144
tp1292
a(I130
I143
tp1293
a(I129
I143
tp1294
a(I129
I142
tp1295
a(I129
I144
tp1296
a(I128
I144
tp1297
a(I128
I143
tp1298
a(I129
I145
tp1299
a(I130
I146
tp1300
a(I130
I145
tp1301
a(I130
I147
tp1302
a(I131
I147
tp1303
a(I131
I148
tp1304
a(I131
I149
tp1305
a(I132
I149
tp1306
a(I132
I150
tp1307
a(I132
I151
tp1308
a(I133
I151
tp1309
a(I133
I152
tp1310
a(I133
I153
tp1311
a(I134
I153
tp1312
a(I134
I154
tp1313
a(I135
I154
tp1314
a(I135
I155
tp1315
a(I136
I155
tp1316
a(I135
I156
tp1317
a(I135
I157
tp1318
a(I134
I157
tp1319
a(I134
I158
tp1320
a(I133
I157
tp1321
a(I133
I158
tp1322
a(I132
I157
tp1323
a(I132
I156
tp1324
a(I131
I156
tp1325
a(I131
I157
tp1326
a(I130
I156
tp1327
a(I130
I155
tp1328
a(I129
I155
tp1329
a(I130
I157
tp1330
a(I130
I158
tp1331
a(I131
I158
tp1332
a(I131
I159
tp1333
a(I132
I159
tp1334
a(I130
I159
tp1335
a(I131
I160
tp1336
a(I131
I161
tp1337
a(I132
I160
tp1338
a(I132
I161
tp1339
a(I133
I161
tp1340
a(I133
I162
tp1341
a(I133
I163
tp1342
a(I133
I164
tp1343
a(I133
I165
tp1344
a(I134
I165
tp1345
a(I134
I166
tp1346
a(I134
I167
tp1347
a(I135
I165
tp1348
a(I135
I166
tp1349
a(I135
I167
tp1350
a(I135
I168
tp1351
a(I135
I169
tp1352
a(I135
I170
tp1353
a(I136
I170
tp1354
a(I136
I171
tp1355
a(I137
I171
tp1356
a(I137
I172
tp1357
a(I136
I172
tp1358
a(I135
I172
tp1359
a(I134
I172
tp1360
a(I134
I171
tp1361
a(I133
I171
tp1362
a(I133
I172
tp1363
a(I135
I173
tp1364
a(I134
I173
tp1365
a(I135
I174
tp1366
a(I134
I174
tp1367
a(I135
I175
tp1368
a(I136
I175
tp1369
a(I136
I174
tp1370
a(I136
I176
tp1371
a(I136
I177
tp1372
a(I135
I176
tp1373
a(I135
I177
tp1374
a(I135
I178
tp1375
a(I136
I178
tp1376
a(I136
I179
tp1377
a(I135
I179
tp1378
a(I136
I180
tp1379
a(I135
I180
tp1380
a(I135
I181
tp1381
a(I136
I181
tp1382
a(I135
I182
tp1383
a(I136
I182
tp1384
a(I137
I182
tp1385
a(I137
I183
tp1386
a(I136
I183
tp1387
a(I137
I184
tp1388
a(I136
I184
tp1389
a(I138
I184
tp1390
a(I139
I184
tp1391
a(I140
I184
tp1392
a(I139
I185
tp1393
a(I140
I185
tp1394
a(I139
I186
tp1395
a(I140
I186
tp1396
a(I141
I186
tp1397
a(I141
I185
tp1398
a(I141
I187
tp1399
a(I141
I188
tp1400
a(I140
I188
tp1401
a(I141
I189
tp1402
a(I141
I190
tp1403
a(I141
I191
tp1404
a(I141
I192
tp1405
a(I142
I191
tp1406
a(I142
I187
tp1407
a(I142
I188
tp1408
a(I142
I189
tp1409
a(I142
I190
tp1410
a(I143
I190
tp1411
a(I143
I188
tp1412
a(I144
I188
tp1413
a(I144
I189
tp1414
a(I145
I189
tp1415
a(I146
I189
tp1416
a(I147
I186
tp1417
a(I146
I185
tp1418
a(I146
I190
tp1419
a(I147
I190
tp1420
a(I148
I190
tp1421
a(I149
I191
tp1422
a(I150
I191
tp1423
a(I151
I191
tp1424
a(I151
I192
tp1425
a(I152
I192
tp1426
a(I153
I192
tp1427
a(I154
I192
tp1428
a(I154
I193
tp1429
a(I155
I193
tp1430
a(I156
I193
tp1431
a(I157
I193
tp1432
a(I157
I194
tp1433
a(I158
I193
tp1434
a(I158
I194
tp1435
a(I159
I194
tp1436
a(I160
I194
tp1437
a(I160
I195
tp1438
a(I159
I195
tp1439
a(I161
I194
tp1440
a(I161
I195
tp1441
a(I162
I195
tp1442
a(I163
I195
tp1443
a(I163
I196
tp1444
a(I164
I195
tp1445
a(I164
I196
tp1446
a(I165
I196
tp1447
a(I166
I196
tp1448
a(I167
I196
tp1449
a(I167
I197
tp1450
a(I168
I197
tp1451
a(I169
I197
tp1452
a(I170
I197
tp1453
a(I170
I198
tp1454
a(I171
I197
tp1455
a(I172
I197
tp1456
a(I172
I198
tp1457
a(I173
I198
tp1458
a(I174
I198
tp1459
a(I175
I198
tp1460
a(I176
I198
tp1461
a(I176
I199
tp1462
a(I177
I199
tp1463
a(I177
I200
tp1464
a(I178
I200
tp1465
a(I179
I200
tp1466
a(I179
I199
tp1467
a(I180
I200
tp1468
a(I181
I200
tp1469
a(I181
I199
tp1470
a(I182
I200
tp1471
a(I182
I199
tp1472
a(I182
I201
tp1473
a(I181
I201
tp1474
a(I183
I200
tp1475
a(I184
I200
tp1476
a(I183
I199
tp1477
a(I183
I201
tp1478
a(I183
I202
tp1479
a(I183
I203
tp1480
a(I184
I203
tp1481
a(I184
I204
tp1482
a(I184
I205
tp1483
a(I184
I206
tp1484
a(I185
I204
tp1485
a(I185
I205
tp1486
a(I184
I202
tp1487
a(I185
I203
tp1488
a(I185
I202
tp1489
a(I185
I201
tp1490
a(I184
I201
tp1491
a(I185
I200
tp1492
a(I186
I200
tp1493
a(I187
I200
tp1494
a(I187
I201
tp1495
a(I188
I201
tp1496
a(I188
I200
tp1497
a(I189
I200
tp1498
a(I190
I200
tp1499
a(I191
I200
tp1500
a(I192
I200
tp1501
a(I192
I201
tp1502
a(I193
I201
tp1503
a(I191
I201
tp1504
a(I193
I200
tp1505
a(I194
I200
tp1506
a(I195
I200
tp1507
a(I196
I200
tp1508
a(I197
I200
tp1509
a(I197
I201
tp1510
a(I196
I201
tp1511
a(I198
I201
tp1512
a(I198
I200
tp1513
a(I198
I202
tp1514
a(I199
I201
tp1515
a(I199
I202
tp1516
a(I199
I203
tp1517
a(I198
I203
tp1518
a(I198
I204
tp1519
a(I198
I205
tp1520
a(I199
I205
tp1521
a(I199
I206
tp1522
a(I198
I206
tp1523
a(I198
I207
tp1524
a(I198
I208
tp1525
a(I198
I209
tp1526
a(I199
I209
tp1527
a(I199
I210
tp1528
a(I199
I207
tp1529
a(I199
I208
tp1530
a(I199
I204
tp1531
a(I200
I204
tp1532
a(I200
I202
tp1533
a(I200
I203
tp1534
a(I201
I202
tp1535
a(I202
I202
tp1536
a(I203
I202
tp1537
a(I204
I202
tp1538
a(I205
I202
tp1539
a(I206
I202
tp1540
a(I206
I201
tp1541
a(I207
I201
tp1542
a(I207
I202
tp1543
a(I208
I202
tp1544
a(I209
I202
tp1545
a(I210
I202
tp1546
a(I210
I203
tp1547
a(I211
I202
tp1548
a(I212
I202
tp1549
a(I213
I202
tp1550
a(I213
I203
tp1551
a(I214
I203
tp1552
a(I214
I202
tp1553
a(I215
I203
tp1554
a(I216
I203
tp1555
a(I217
I203
tp1556
a(I217
I202
tp1557
a(I217
I201
tp1558
a(I218
I202
tp1559
a(I219
I202
tp1560
a(I219
I201
tp1561
a(I219
I200
tp1562
a(I218
I200
tp1563
a(I219
I199
tp1564
a(I219
I198
tp1565
a(I220
I198
tp1566
a(I220
I199
tp1567
a(I220
I197
tp1568
a(I220
I196
tp1569
a(I221
I196
tp1570
a(I222
I196
tp1571
a(I222
I197
tp1572
a(I221
I195
tp1573
a(I221
I194
tp1574
a(I221
I193
tp1575
a(I220
I193
tp1576
a(I220
I192
tp1577
a(I220
I191
tp1578
a(I220
I190
tp1579
a(I219
I190
tp1580
a(I219
I189
tp1581
a(I219
I188
tp1582
a(I219
I187
tp1583
a(I220
I187
tp1584
a(I221
I187
tp1585
a(I221
I186
tp1586
a(I222
I186
tp1587
a(I223
I186
tp1588
a(I223
I187
tp1589
a(I224
I187
tp1590
a(I225
I187
tp1591
a(I225
I188
tp1592
a(I226
I187
tp1593
a(I224
I186
tp1594
a(I222
I187
tp1595
a(I220
I186
tp1596
a(I218
I188
tp1597
a(I218
I187
tp1598
a(I217
I187
tp1599
a(I218
I186
tp1600
a(I219
I186
tp1601
a(I217
I186
tp1602
a(I218
I189
tp1603
a(I217
I188
tp1604
a(I220
I195
tp1605
a(I220
I194
tp1606
a(I222
I195
tp1607
a(I222
I194
tp1608
a(I223
I195
tp1609
a(I223
I196
tp1610
a(I224
I195
tp1611
a(I224
I196
tp1612
a(I225
I195
tp1613
a(I225
I196
tp1614
a(I224
I194
tp1615
a(I225
I194
tp1616
a(I225
I193
tp1617
a(I225
I192
tp1618
a(I225
I191
tp1619
a(I226
I192
tp1620
a(I226
I194
tp1621
a(I226
I193
tp1622
a(I226
I195
tp1623
a(I227
I194
tp1624
a(I228
I194
tp1625
a(I228
I193
tp1626
a(I228
I192
tp1627
a(I227
I192
tp1628
a(I228
I191
tp1629
a(I228
I190
tp1630
a(I227
I191
tp1631
a(I226
I191
tp1632
a(I227
I190
tp1633
a(I226
I190
tp1634
a(I227
I189
tp1635
a(I228
I189
tp1636
a(I227
I188
tp1637
a(I228
I188
tp1638
a(I227
I187
tp1639
a(I226
I189
tp1640
a(I226
I188
tp1641
a(I229
I194
tp1642
a(I230
I194
tp1643
a(I230
I195
tp1644
a(I231
I195
tp1645
a(I231
I196
tp1646
a(I232
I195
tp1647
a(I232
I196
tp1648
a(I232
I197
tp1649
a(I233
I197
tp1650
a(I233
I196
tp1651
a(I234
I197
tp1652
a(I234
I198
tp1653
a(I234
I199
tp1654
a(I235
I198
tp1655
a(I235
I199
tp1656
a(I235
I200
tp1657
a(I235
I201
tp1658
a(I236
I200
tp1659
a(I236
I199
tp1660
a(I236
I201
tp1661
a(I236
I202
tp1662
a(I236
I203
tp1663
a(I237
I203
tp1664
a(I236
I204
tp1665
a(I237
I204
tp1666
a(I235
I204
tp1667
a(I235
I205
tp1668
a(I236
I205
tp1669
a(I237
I201
tp1670
a(I237
I202
tp1671
a(I233
I198
tp1672
a(I230
I196
tp1673
a(I228
I195
tp1674
a(I229
I195
tp1675
a(I227
I193
tp1676
a(I227
I195
tp1677
a(I221
I197
tp1678
a(I219
I197
tp1679
a(I218
I199
tp1680
a(I218
I201
tp1681
a(I218
I203
tp1682
a(I219
I203
tp1683
a(I217
I204
tp1684
a(I217
I205
tp1685
a(I218
I204
tp1686
a(I219
I204
tp1687
a(I219
I205
tp1688
a(I219
I206
tp1689
a(I218
I206
tp1690
a(I218
I207
tp1691
a(I217
I207
tp1692
a(I217
I206
tp1693
a(I217
I208
tp1694
a(I220
I204
tp1695
a(I220
I203
tp1696
a(I221
I204
tp1697
a(I221
I205
tp1698
a(I221
I206
tp1699
a(I222
I205
tp1700
a(I222
I206
tp1701
a(I223
I206
tp1702
a(I223
I207
tp1703
a(I224
I206
tp1704
a(I224
I207
tp1705
a(I225
I207
tp1706
a(I226
I207
tp1707
a(I227
I207
tp1708
a(I228
I207
tp1709
a(I224
I208
tp1710
a(I225
I208
tp1711
a(I224
I209
tp1712
a(I225
I209
tp1713
a(I225
I210
tp1714
a(I225
I211
tp1715
a(I226
I211
tp1716
a(I225
I212
tp1717
a(I226
I212
tp1718
a(I225
I213
tp1719
a(I226
I213
tp1720
a(I226
I214
tp1721
a(I226
I215
tp1722
a(I226
I216
tp1723
a(I225
I216
tp1724
a(I225
I217
tp1725
a(I227
I216
tp1726
a(I227
I217
tp1727
a(I228
I217
tp1728
a(I229
I217
tp1729
a(I229
I218
tp1730
a(I230
I218
tp1731
a(I231
I218
tp1732
a(I231
I217
tp1733
a(I232
I217
tp1734
a(I233
I217
tp1735
a(I234
I217
tp1736
a(I235
I217
tp1737
a(I236
I217
tp1738
a(I233
I216
tp1739
a(I232
I216
tp1740
a(I234
I216
tp1741
a(I235
I216
tp1742
a(I236
I216
tp1743
a(I237
I216
tp1744
a(I237
I217
tp1745
a(I234
I215
tp1746
a(I235
I215
tp1747
a(I236
I215
tp1748
a(I234
I214
tp1749
a(I235
I214
tp1750
a(I234
I213
tp1751
a(I233
I213
tp1752
a(I235
I213
tp1753
a(I236
I213
tp1754
a(I234
I212
tp1755
a(I234
I211
tp1756
a(I233
I212
tp1757
a(I232
I212
tp1758
a(I233
I211
tp1759
a(I235
I212
tp1760
a(I235
I211
tp1761
a(I235
I210
tp1762
a(I234
I210
tp1763
a(I234
I209
tp1764
a(I233
I210
tp1765
a(I232
I210
tp1766
a(I231
I210
tp1767
a(I231
I211
tp1768
a(I232
I211
tp1769
a(I231
I209
tp1770
a(I232
I209
tp1771
a(I230
I209
tp1772
a(I231
I208
tp1773
a(I230
I208
tp1774
a(I231
I207
tp1775
a(I230
I207
tp1776
a(I229
I207
tp1777
a(I229
I208
tp1778
a(I228
I208
tp1779
a(I232
I207
tp1780
a(I232
I208
tp1781
a(I233
I208
tp1782
a(I234
I208
tp1783
a(I233
I207
tp1784
a(I234
I207
tp1785
a(I234
I206
tp1786
a(I235
I206
tp1787
a(I233
I209
tp1788
a(I236
I211
tp1789
a(I236
I212
tp1790
a(I237
I212
tp1791
a(I238
I212
tp1792
a(I237
I213
tp1793
a(I238
I213
tp1794
a(I237
I214
tp1795
a(I236
I214
tp1796
a(I238
I214
tp1797
a(I238
I215
tp1798
a(I238
I216
tp1799
a(I239
I214
tp1800
a(I240
I214
tp1801
a(I241
I214
tp1802
a(I242
I214
tp1803
a(I243
I214
tp1804
a(I242
I215
tp1805
a(I243
I215
tp1806
a(I244
I215
tp1807
a(I245
I215
tp1808
a(I245
I216
tp1809
a(I246
I216
tp1810
a(I246
I217
tp1811
a(I247
I217
tp1812
a(I247
I216
tp1813
a(I248
I217
tp1814
a(I249
I217
tp1815
a(I249
I218
tp1816
a(I250
I218
tp1817
a(I251
I218
tp1818
a(I252
I218
tp1819
a(I253
I218
tp1820
a(I252
I219
tp1821
a(I253
I219
tp1822
a(I254
I219
tp1823
a(I255
I219
tp1824
a(I255
I220
tp1825
a(I256
I220
tp1826
a(I257
I220
tp1827
a(I258
I220
tp1828
a(I258
I221
tp1829
a(I259
I221
tp1830
a(I260
I221
tp1831
a(I261
I221
tp1832
a(I261
I222
tp1833
a(I262
I222
tp1834
a(I263
I222
tp1835
a(I263
I223
tp1836
a(I264
I223
tp1837
a(I265
I223
tp1838
a(I265
I224
tp1839
a(I266
I224
tp1840
a(I267
I224
tp1841
a(I268
I224
tp1842
a(I268
I225
tp1843
a(I269
I225
tp1844
a(I270
I225
tp1845
a(I270
I226
tp1846
a(I271
I226
tp1847
a(I272
I227
tp1848
a(I273
I227
tp1849
a(I274
I228
tp1850
a(I275
I228
tp1851
a(I276
I229
tp1852
a(I277
I229
tp1853
a(I277
I230
tp1854
a(I278
I230
tp1855
a(I279
I230
tp1856
a(I279
I231
tp1857
a(I280
I231
tp1858
a(I280
I232
tp1859
a(I281
I232
tp1860
a(I282
I232
tp1861
a(I282
I233
tp1862
a(I283
I233
tp1863
a(I283
I234
tp1864
a(I284
I234
tp1865
a(I285
I234
tp1866
a(I285
I235
tp1867
a(I284
I235
tp1868
a(I286
I235
tp1869
a(I286
I236
tp1870
a(I287
I236
tp1871
a(I287
I237
tp1872
a(I288
I237
tp1873
a(I288
I238
tp1874
a(I289
I238
tp1875
a(I289
I239
tp1876
a(I290
I239
tp1877
a(I290
I240
tp1878
a(I291
I240
tp1879
a(I291
I241
tp1880
a(I292
I241
tp1881
a(I291
I242
tp1882
a(I292
I242
tp1883
a(I293
I242
tp1884
a(I292
I243
tp1885
a(I293
I243
tp1886
a(I293
I244
tp1887
a(I294
I244
tp1888
a(I293
I245
tp1889
a(I294
I245
tp1890
a(I294
I246
tp1891
a(I295
I246
tp1892
a(I295
I247
tp1893
a(I295
I248
tp1894
a(I296
I248
tp1895
a(I296
I249
tp1896
a(I295
I249
tp1897
a(I296
I250
tp1898
a(I295
I250
tp1899
a(I297
I250
tp1900
a(I296
I251
tp1901
a(I295
I251
tp1902
a(I297
I251
tp1903
a(I297
I252
tp1904
a(I297
I253
tp1905
a(I296
I252
tp1906
a(I296
I253
tp1907
a(I296
I254
tp1908
a(I297
I254
tp1909
a(I296
I255
tp1910
a(I296
I256
tp1911
a(I297
I256
tp1912
a(I297
I255
tp1913
a(I297
I257
tp1914
a(I296
I257
tp1915
a(I297
I258
tp1916
a(I296
I258
tp1917
a(I297
I259
tp1918
a(I298
I259
tp1919
a(I296
I259
tp1920
a(I297
I260
tp1921
a(I296
I260
tp1922
a(I297
I261
tp1923
a(I297
I262
tp1924
a(I296
I262
tp1925
a(I296
I261
tp1926
a(I296
I263
tp1927
a(I297
I263
tp1928
a(I296
I264
tp1929
a(I297
I264
tp1930
a(I296
I265
tp1931
a(I297
I265
tp1932
a(I296
I266
tp1933
a(I296
I267
tp1934
a(I297
I267
tp1935
a(I296
I268
tp1936
a(I297
I268
tp1937
a(I297
I269
tp1938
a(I297
I270
tp1939
a(I296
I269
tp1940
a(I295
I269
tp1941
a(I296
I270
tp1942
a(I295
I270
tp1943
a(I296
I271
tp1944
a(I295
I271
tp1945
a(I296
I272
tp1946
a(I295
I272
tp1947
a(I296
I273
tp1948
a(I295
I273
tp1949
a(I294
I273
tp1950
a(I294
I274
tp1951
a(I294
I275
tp1952
a(I295
I275
tp1953
a(I294
I276
tp1954
a(I293
I276
tp1955
a(I295
I276
tp1956
a(I294
I277
tp1957
a(I293
I277
tp1958
a(I295
I277
tp1959
a(I294
I278
tp1960
a(I293
I278
tp1961
a(I294
I279
tp1962
a(I293
I279
tp1963
a(I292
I279
tp1964
a(I293
I280
tp1965
a(I292
I280
tp1966
a(I293
I281
tp1967
a(I292
I281
tp1968
a(I292
I282
tp1969
a(I291
I282
tp1970
a(I291
I281
tp1971
a(I292
I283
tp1972
a(I291
I283
tp1973
a(I290
I283
tp1974
a(I291
I284
tp1975
a(I290
I284
tp1976
a(I290
I285
tp1977
a(I289
I285
tp1978
a(I290
I286
tp1979
a(I289
I286
tp1980
a(I289
I287
tp1981
a(I288
I287
tp1982
a(I288
I286
tp1983
a(I288
I288
tp1984
a(I287
I288
tp1985
a(I287
I287
tp1986
a(I286
I288
tp1987
a(I285
I288
tp1988
a(I285
I289
tp1989
a(I284
I289
tp1990
a(I284
I290
tp1991
a(I285
I290
tp1992
a(I286
I290
tp1993
a(I283
I290
tp1994
a(I284
I291
tp1995
a(I283
I291
tp1996
a(I282
I291
tp1997
a(I283
I292
tp1998
a(I282
I292
tp1999
a(I281
I292
tp2000
a(I281
I291
tp2001
a(I280
I292
tp2002
a(I279
I292
tp2003
a(I280
I293
tp2004
a(I279
I293
tp2005
a(I278
I293
tp2006
a(I277
I293
tp2007
a(I278
I294
tp2008
a(I279
I294
tp2009
a(I277
I294
tp2010
a(I276
I294
tp2011
a(I275
I294
tp2012
a(I275
I295
tp2013
a(I274
I295
tp2014
a(I273
I295
tp2015
a(I272
I295
tp2016
a(I271
I295
tp2017
a(I271
I296
tp2018
a(I270
I296
tp2019
a(I269
I296
tp2020
a(I268
I296
tp2021
a(I267
I296
tp2022
a(I266
I296
tp2023
a(I265
I296
tp2024
a(I266
I297
tp2025
a(I265
I297
tp2026
a(I264
I297
tp2027
a(I263
I297
tp2028
a(I262
I297
tp2029
a(I261
I297
tp2030
a(I260
I297
tp2031
a(I259
I297
tp2032
a(I258
I297
tp2033
a(I257
I297
tp2034
a(I256
I297
tp2035
a(I255
I297
tp2036
a(I254
I297
tp2037
a(I255
I296
tp2038
a(I254
I296
tp2039
a(I253
I296
tp2040
a(I252
I296
tp2041
a(I251
I296
tp2042
a(I250
I296
tp2043
a(I249
I296
tp2044
a(I249
I295
tp2045
a(I248
I296
tp2046
a(I248
I295
tp2047
a(I247
I295
tp2048
a(I247
I296
tp2049
a(I246
I296
tp2050
a(I246
I295
tp2051
a(I245
I295
tp2052
a(I244
I295
tp2053
a(I245
I294
tp2054
a(I244
I294
tp2055
a(I243
I294
tp2056
a(I242
I294
tp2057
a(I241
I294
tp2058
a(I240
I294
tp2059
a(I240
I293
tp2060
a(I241
I293
tp2061
a(I239
I293
tp2062
a(I238
I293
tp2063
a(I238
I292
tp2064
a(I237
I292
tp2065
a(I236
I292
tp2066
a(I236
I291
tp2067
a(I235
I291
tp2068
a(I234
I291
tp2069
a(I234
I290
tp2070
a(I233
I290
tp2071
a(I232
I290
tp2072
a(I232
I289
tp2073
a(I231
I289
tp2074
a(I233
I289
tp2075
a(I232
I288
tp2076
a(I231
I288
tp2077
a(I230
I288
tp2078
a(I230
I287
tp2079
a(I230
I286
tp2080
a(I229
I286
tp2081
a(I229
I285
tp2082
a(I230
I285
tp2083
a(I229
I284
tp2084
a(I228
I284
tp2085
a(I229
I283
tp2086
a(I228
I283
tp2087
a(I229
I282
tp2088
a(I228
I282
tp2089
a(I229
I281
tp2090
a(I228
I281
tp2091
a(I229
I280
tp2092
a(I229
I279
tp2093
a(I230
I279
tp2094
a(I228
I279
tp2095
a(I228
I280
tp2096
a(I229
I278
tp2097
a(I230
I278
tp2098
a(I228
I278
tp2099
a(I229
I277
tp2100
a(I230
I277
tp2101
a(I231
I277
tp2102
a(I230
I276
tp2103
a(I231
I276
tp2104
a(I231
I275
tp2105
a(I232
I275
tp2106
a(I233
I275
tp2107
a(I234
I275
tp2108
a(I235
I275
tp2109
a(I236
I275
tp2110
a(I235
I274
tp2111
a(I234
I274
tp2112
a(I236
I274
tp2113
a(I237
I274
tp2114
a(I238
I274
tp2115
a(I239
I274
tp2116
a(I239
I273
tp2117
a(I240
I273
tp2118
a(I241
I273
tp2119
a(I240
I274
tp2120
a(I241
I274
tp2121
a(I242
I274
tp2122
a(I243
I274
tp2123
a(I244
I274
tp2124
a(I243
I273
tp2125
a(I244
I273
tp2126
a(I245
I273
tp2127
a(I246
I273
tp2128
a(I247
I273
tp2129
a(I248
I273
tp2130
a(I249
I273
tp2131
a(I249
I274
tp2132
a(I250
I273
tp2133
a(I251
I273
tp2134
a(I252
I273
tp2135
a(I253
I273
tp2136
a(I254
I273
tp2137
a(I255
I273
tp2138
a(I256
I273
tp2139
a(I255
I272
tp2140
a(I254
I272
tp2141
a(I256
I272
tp2142
a(I257
I272
tp2143
a(I258
I272
tp2144
a(I259
I272
tp2145
a(I260
I272
tp2146
a(I261
I272
tp2147
a(I258
I273
tp2148
a(I257
I273
tp2149
a(I259
I273
tp2150
a(I260
I273
tp2151
a(I261
I273
tp2152
a(I262
I273
tp2153
a(I263
I273
tp2154
a(I262
I272
tp2155
a(I263
I272
tp2156
a(I263
I271
tp2157
a(I264
I271
tp2158
a(I264
I272
tp2159
a(I265
I271
tp2160
a(I266
I271
tp2161
a(I265
I272
tp2162
a(I266
I272
tp2163
a(I267
I272
tp2164
a(I267
I271
tp2165
a(I268
I272
tp2166
a(I268
I271
tp2167
a(I269
I271
tp2168
a(I270
I271
tp2169
a(I271
I271
tp2170
a(I272
I271
tp2171
a(I272
I270
tp2172
a(I273
I270
tp2173
a(I274
I270
tp2174
a(I275
I270
tp2175
a(I275
I269
tp2176
a(I274
I269
tp2177
a(I276
I269
tp2178
a(I277
I269
tp2179
a(I276
I268
tp2180
a(I277
I268
tp2181
a(I278
I268
tp2182
a(I278
I267
tp2183
a(I279
I268
tp2184
a(I279
I267
tp2185
a(I280
I267
tp2186
a(I279
I266
tp2187
a(I280
I266
tp2188
a(I280
I265
tp2189
a(I281
I266
tp2190
a(I281
I265
tp2191
a(I282
I265
tp2192
a(I282
I264
tp2193
a(I283
I264
tp2194
a(I281
I264
tp2195
a(I282
I263
tp2196
a(I282
I262
tp2197
a(I282
I261
tp2198
a(I283
I261
tp2199
a(I284
I261
tp2200
a(I284
I262
tp2201
a(I284
I260
tp2202
a(I283
I260
tp2203
a(I284
I259
tp2204
a(I283
I259
tp2205
a(I284
I258
tp2206
a(I285
I258
tp2207
a(I284
I257
tp2208
a(I285
I257
tp2209
a(I284
I256
tp2210
a(I285
I256
tp2211
a(I284
I255
tp2212
a(I285
I255
tp2213
a(I284
I254
tp2214
a(I283
I254
tp2215
a(I283
I255
tp2216
a(I283
I253
tp2217
a(I284
I253
tp2218
a(I284
I252
tp2219
a(I284
I251
tp2220
a(I283
I252
tp2221
a(I283
I251
tp2222
a(I283
I250
tp2223
a(I283
I249
tp2224
a(I282
I249
tp2225
a(I281
I249
tp2226
a(I282
I248
tp2227
a(I282
I247
tp2228
a(I281
I248
tp2229
a(I281
I247
tp2230
a(I281
I246
tp2231
a(I280
I246
tp2232
a(I280
I245
tp2233
a(I279
I245
tp2234
a(I280
I244
tp2235
a(I279
I244
tp2236
a(I279
I243
tp2237
a(I278
I243
tp2238
a(I278
I242
tp2239
a(I277
I242
tp2240
a(I277
I241
tp2241
a(I276
I241
tp2242
a(I276
I240
tp2243
a(I275
I239
tp2244
a(I274
I238
tp2245
a(I273
I238
tp2246
a(I273
I237
tp2247
a(I272
I237
tp2248
a(I272
I236
tp2249
a(I271
I236
tp2250
a(I271
I235
tp2251
a(I270
I235
tp2252
a(I270
I234
tp2253
a(I282
I251
tp2254
a(I282
I250
tp2255
a(I283
I257
tp2256
a(I283
I258
tp2257
a(I283
I256
tp2258
a(I283
I263
tp2259
a(I283
I262
tp2260
a(I281
I263
tp2261
a(I270
I270
tp2262
a(I271
I270
tp2263
a(I247
I274
tp2264
a(I248
I274
tp2265
a(I245
I274
tp2266
a(I246
I274
tp2267
a(I242
I273
tp2268
a(I232
I276
tp2269
a(I233
I276
tp2270
a(I231
I287
tp2271
a(I242
I295
tp2272
a(I243
I295
tp2273
a(I252
I297
tp2274
a(I251
I297
tp2275
a(I250
I297
tp2276
a(I253
I297
tp2277
a(I256
I296
tp2278
a(I267
I297
tp2279
a(I269
I297
tp2280
a(I270
I297
tp2281
a(I268
I297
tp2282
a(I273
I296
tp2283
a(I272
I296
tp2284
a(I274
I296
tp2285
a(I276
I295
tp2286
a(I277
I295
tp2287
a(I281
I293
tp2288
a(I287
I289
tp2289
a(I286
I289
tp2290
a(I296
I274
tp2291
a(I295
I274
tp2292
a(I297
I266
tp2293
a(I298
I260
tp2294
a(I299
I260
tp2295
a(I299
I259
tp2296
a(I294
I247
tp2297
a(I266
I223
tp2298
a(I250
I217
tp2299
a(I248
I216
tp2300
a(I244
I216
tp2301
a(I241
I215
tp2302
a(I242
I216
tp2303
a(I243
I216
tp2304
a(I239
I215
tp2305
a(I240
I215
tp2306
a(I239
I213
tp2307
a(I240
I213
tp2308
a(I237
I215
tp2309
a(I233
I214
tp2310
a(I229
I219
tp2311
a(I230
I219
tp2312
a(I231
I219
tp2313
a(I231
I220
tp2314
a(I232
I220
tp2315
a(I233
I220
tp2316
a(I228
I219
tp2317
a(I229
I220
tp2318
a(I229
I221
tp2319
a(I228
I221
tp2320
a(I227
I221
tp2321
a(I226
I221
tp2322
a(I226
I222
tp2323
a(I225
I221
tp2324
a(I225
I222
tp2325
a(I224
I221
tp2326
a(I224
I222
tp2327
a(I223
I221
tp2328
a(I222
I221
tp2329
a(I221
I221
tp2330
a(I221
I220
tp2331
a(I222
I220
tp2332
a(I220
I221
tp2333
a(I220
I220
tp2334
a(I219
I220
tp2335
a(I218
I220
tp2336
a(I217
I220
tp2337
a(I218
I219
tp2338
a(I217
I219
tp2339
a(I217
I218
tp2340
a(I216
I219
tp2341
a(I216
I218
tp2342
a(I216
I217
tp2343
a(I217
I217
tp2344
a(I217
I216
tp2345
a(I217
I215
tp2346
a(I217
I214
tp2347
a(I217
I213
tp2348
a(I216
I214
tp2349
a(I216
I213
tp2350
a(I216
I212
tp2351
a(I216
I211
tp2352
a(I216
I210
tp2353
a(I216
I209
tp2354
a(I217
I211
tp2355
a(I217
I212
tp2356
a(I217
I210
tp2357
a(I217
I209
tp2358
a(I216
I215
tp2359
a(I216
I216
tp2360
a(I216
I220
tp2361
a(I215
I220
tp2362
a(I215
I221
tp2363
a(I215
I222
tp2364
a(I214
I220
tp2365
a(I213
I220
tp2366
a(I212
I220
tp2367
a(I211
I220
tp2368
a(I210
I220
tp2369
a(I209
I220
tp2370
a(I208
I220
tp2371
a(I207
I220
tp2372
a(I207
I219
tp2373
a(I206
I219
tp2374
a(I205
I219
tp2375
a(I204
I219
tp2376
a(I203
I219
tp2377
a(I203
I218
tp2378
a(I202
I219
tp2379
a(I201
I219
tp2380
a(I200
I219
tp2381
a(I200
I218
tp2382
a(I199
I218
tp2383
a(I200
I217
tp2384
a(I199
I217
tp2385
a(I199
I216
tp2386
a(I199
I215
tp2387
a(I198
I215
tp2388
a(I199
I214
tp2389
a(I198
I214
tp2390
a(I199
I213
tp2391
a(I199
I212
tp2392
a(I198
I212
tp2393
a(I198
I213
tp2394
a(I198
I211
tp2395
a(I198
I210
tp2396
a(I199
I211
tp2397
a(I198
I217
tp2398
a(I198
I216
tp2399
a(I198
I218
tp2400
a(I198
I219
tp2401
a(I198
I220
tp2402
a(I197
I220
tp2403
a(I197
I219
tp2404
a(I197
I221
tp2405
a(I196
I220
tp2406
a(I195
I220
tp2407
a(I195
I219
tp2408
a(I194
I219
tp2409
a(I193
I219
tp2410
a(I193
I218
tp2411
a(I192
I218
tp2412
a(I191
I218
tp2413
a(I191
I217
tp2414
a(I190
I217
tp2415
a(I189
I217
tp2416
a(I189
I216
tp2417
a(I188
I216
tp2418
a(I188
I215
tp2419
a(I187
I215
tp2420
a(I186
I215
tp2421
a(I196
I221
tp2422
a(I199
I220
tp2423
a(I199
I219
tp2424
a(I199
I221
tp2425
a(I198
I221
tp2426
a(I201
I218
tp2427
a(I202
I218
tp2428
a(I208
I219
tp2429
a(I206
I220
tp2430
a(I213
I221
tp2431
a(I214
I221
tp2432
a(I212
I221
tp2433
a(I211
I221
tp2434
a(I218
I221
tp2435
a(I217
I221
tp2436
a(I217
I222
tp2437
a(I216
I221
tp2438
a(I216
I222
tp2439
a(I219
I221
tp2440
a(I227
I222
tp2441
a(I228
I222
tp2442
a(I229
I222
tp2443
a(I230
I221
tp2444
a(I231
I221
tp2445
a(I232
I221
tp2446
a(I233
I221
tp2447
a(I234
I221
tp2448
a(I234
I220
tp2449
a(I235
I221
tp2450
a(I236
I221
tp2451
a(I236
I222
tp2452
a(I237
I221
tp2453
a(I238
I221
tp2454
a(I238
I222
tp2455
a(I239
I222
tp2456
a(I240
I222
tp2457
a(I240
I223
tp2458
a(I241
I223
tp2459
a(I242
I223
tp2460
a(I243
I223
tp2461
a(I244
I223
tp2462
a(I245
I223
tp2463
a(I244
I224
tp2464
a(I245
I224
tp2465
a(I246
I224
tp2466
a(I246
I223
tp2467
a(I246
I225
tp2468
a(I247
I224
tp2469
a(I248
I224
tp2470
a(I249
I224
tp2471
a(I250
I224
tp2472
a(I250
I225
tp2473
a(I250
I226
tp2474
a(I251
I225
tp2475
a(I252
I225
tp2476
a(I253
I225
tp2477
a(I253
I226
tp2478
a(I254
I226
tp2479
a(I255
I226
tp2480
a(I255
I227
tp2481
a(I254
I227
tp2482
a(I256
I227
tp2483
a(I257
I227
tp2484
a(I256
I228
tp2485
a(I257
I228
tp2486
a(I258
I228
tp2487
a(I259
I228
tp2488
a(I259
I229
tp2489
a(I260
I229
tp2490
a(I261
I229
tp2491
a(I262
I229
tp2492
a(I262
I230
tp2493
a(I261
I230
tp2494
a(I263
I230
tp2495
a(I263
I231
tp2496
a(I264
I231
tp2497
a(I265
I231
tp2498
a(I265
I232
tp2499
a(I266
I232
tp2500
a(I267
I232
tp2501
a(I267
I233
tp2502
a(I268
I233
tp2503
a(I268
I234
tp2504
a(I260
I228
tp2505
a(I253
I227
tp2506
a(I252
I226
tp2507
a(I251
I226
tp2508
a(I249
I225
tp2509
a(I247
I225
tp2510
a(I248
I225
tp2511
a(I242
I224
tp2512
a(I242
I222
tp2513
a(I241
I222
tp2514
a(I237
I222
tp2515
a(I235
I222
tp2516
a(I228
I220
tp2517
a(I230
I220
tp2518
a(I230
I217
tp2519
a(I227
I218
tp2520
a(I227
I219
tp2521
a(I228
I218
tp2522
a(I226
I218
tp2523
a(I226
I219
tp2524
a(I228
I216
tp2525
a(I226
I217
tp2526
a(I225
I215
tp2527
a(I225
I214
tp2528
a(I226
I209
tp2529
a(I226
I208
tp2530
a(I226
I210
tp2531
a(I220
I205
tp2532
a(I218
I205
tp2533
a(I216
I202
tp2534
a(I215
I202
tp2535
a(I212
I203
tp2536
a(I211
I203
tp2537
a(I204
I201
tp2538
a(I205
I201
tp2539
a(I203
I201
tp2540
a(I201
I201
tp2541
a(I202
I201
tp2542
a(I199
I200
tp2543
a(I200
I201
tp2544
a(I194
I201
tp2545
a(I195
I201
tp2546
a(I189
I201
tp2547
a(I190
I201
tp2548
a(I186
I201
tp2549
a(I183
I204
tp2550
a(I183
I205
tp2551
a(I183
I206
tp2552
a(I183
I207
tp2553
a(I184
I207
tp2554
a(I183
I208
tp2555
a(I184
I208
tp2556
a(I182
I208
tp2557
a(I183
I209
tp2558
a(I184
I209
tp2559
a(I182
I209
tp2560
a(I183
I210
tp2561
a(I184
I210
tp2562
a(I185
I210
tp2563
a(I185
I209
tp2564
a(I184
I211
tp2565
a(I185
I211
tp2566
a(I183
I211
tp2567
a(I182
I211
tp2568
a(I182
I210
tp2569
a(I182
I212
tp2570
a(I181
I211
tp2571
a(I181
I212
tp2572
a(I180
I211
tp2573
a(I181
I210
tp2574
a(I180
I210
tp2575
a(I179
I210
tp2576
a(I179
I211
tp2577
a(I178
I210
tp2578
a(I177
I210
tp2579
a(I176
I210
tp2580
a(I176
I209
tp2581
a(I175
I209
tp2582
a(I174
I209
tp2583
a(I174
I208
tp2584
a(I173
I208
tp2585
a(I172
I208
tp2586
a(I171
I208
tp2587
a(I171
I207
tp2588
a(I170
I207
tp2589
a(I169
I207
tp2590
a(I168
I207
tp2591
a(I168
I206
tp2592
a(I167
I206
tp2593
a(I166
I206
tp2594
a(I165
I206
tp2595
a(I165
I205
tp2596
a(I164
I206
tp2597
a(I164
I205
tp2598
a(I163
I205
tp2599
a(I162
I205
tp2600
a(I161
I205
tp2601
a(I161
I204
tp2602
a(I160
I204
tp2603
a(I159
I204
tp2604
a(I158
I204
tp2605
a(I159
I203
tp2606
a(I158
I203
tp2607
a(I157
I203
tp2608
a(I156
I203
tp2609
a(I155
I203
tp2610
a(I154
I203
tp2611
a(I155
I202
tp2612
a(I154
I202
tp2613
a(I153
I202
tp2614
a(I152
I202
tp2615
a(I151
I202
tp2616
a(I150
I202
tp2617
a(I149
I202
tp2618
a(I150
I201
tp2619
a(I149
I201
tp2620
a(I148
I201
tp2621
a(I147
I201
tp2622
a(I146
I201
tp2623
a(I145
I201
tp2624
a(I144
I201
tp2625
a(I143
I201
tp2626
a(I142
I201
tp2627
a(I141
I201
tp2628
a(I140
I201
tp2629
a(I139
I201
tp2630
a(I138
I201
tp2631
a(I138
I202
tp2632
a(I139
I202
tp2633
a(I137
I202
tp2634
a(I137
I201
tp2635
a(I136
I201
tp2636
a(I135
I201
tp2637
a(I135
I202
tp2638
a(I134
I202
tp2639
a(I133
I202
tp2640
a(I132
I202
tp2641
a(I131
I202
tp2642
a(I130
I202
tp2643
a(I129
I202
tp2644
a(I129
I203
tp2645
a(I128
I202
tp2646
a(I128
I203
tp2647
a(I127
I202
tp2648
a(I126
I202
tp2649
a(I126
I203
tp2650
a(I125
I203
tp2651
a(I124
I203
tp2652
a(I124
I202
tp2653
a(I123
I203
tp2654
a(I122
I203
tp2655
a(I122
I202
tp2656
a(I123
I202
tp2657
a(I122
I204
tp2658
a(I121
I204
tp2659
a(I120
I204
tp2660
a(I119
I204
tp2661
a(I119
I203
tp2662
a(I118
I204
tp2663
a(I118
I205
tp2664
a(I117
I205
tp2665
a(I116
I205
tp2666
a(I115
I205
tp2667
a(I114
I205
tp2668
a(I113
I205
tp2669
a(I112
I205
tp2670
a(I111
I205
tp2671
a(I110
I205
tp2672
a(I109
I205
tp2673
a(I111
I206
tp2674
a(I110
I206
tp2675
a(I109
I206
tp2676
a(I108
I206
tp2677
a(I107
I206
tp2678
a(I106
I206
tp2679
a(I106
I205
tp2680
a(I105
I205
tp2681
a(I104
I205
tp2682
a(I103
I205
tp2683
a(I102
I205
tp2684
a(I103
I206
tp2685
a(I104
I206
tp2686
a(I102
I206
tp2687
a(I101
I206
tp2688
a(I101
I205
tp2689
a(I100
I206
tp2690
a(I99
I206
tp2691
a(I100
I205
tp2692
a(I99
I205
tp2693
a(I98
I205
tp2694
a(I97
I205
tp2695
a(I96
I205
tp2696
a(I95
I205
tp2697
a(I94
I205
tp2698
a(I93
I205
tp2699
a(I92
I205
tp2700
a(I92
I206
tp2701
a(I91
I205
tp2702
a(I90
I205
tp2703
a(I89
I205
tp2704
a(I88
I205
tp2705
a(I87
I205
tp2706
a(I87
I204
tp2707
a(I88
I204
tp2708
a(I86
I204
tp2709
a(I85
I204
tp2710
a(I84
I204
tp2711
a(I83
I203
tp2712
a(I82
I203
tp2713
a(I81
I202
tp2714
a(I80
I202
tp2715
a(I80
I201
tp2716
a(I79
I201
tp2717
a(I79
I200
tp2718
a(I78
I200
tp2719
a(I77
I200
tp2720
a(I77
I199
tp2721
a(I76
I199
tp2722
a(I75
I199
tp2723
a(I75
I200
tp2724
a(I76
I200
tp2725
a(I74
I199
tp2726
a(I73
I199
tp2727
a(I73
I198
tp2728
a(I73
I197
tp2729
a(I72
I197
tp2730
a(I72
I199
tp2731
a(I72
I198
tp2732
a(I71
I199
tp2733
a(I71
I198
tp2734
a(I71
I200
tp2735
a(I72
I200
tp2736
a(I73
I200
tp2737
a(I72
I201
tp2738
a(I71
I201
tp2739
a(I71
I202
tp2740
a(I70
I202
tp2741
a(I70
I203
tp2742
a(I69
I203
tp2743
a(I69
I204
tp2744
a(I68
I204
tp2745
a(I68
I205
tp2746
a(I67
I205
tp2747
a(I67
I206
tp2748
a(I66
I205
tp2749
a(I65
I205
tp2750
a(I64
I205
tp2751
a(I63
I205
tp2752
a(I62
I205
tp2753
a(I61
I205
tp2754
a(I61
I204
tp2755
a(I60
I204
tp2756
a(I59
I204
tp2757
a(I59
I205
tp2758
a(I58
I204
tp2759
a(I57
I204
tp2760
a(I56
I204
tp2761
a(I57
I203
tp2762
a(I56
I203
tp2763
a(I55
I203
tp2764
a(I54
I203
tp2765
a(I53
I203
tp2766
a(I52
I203
tp2767
a(I52
I202
tp2768
a(I51
I202
tp2769
a(I51
I201
tp2770
a(I50
I202
tp2771
a(I49
I202
tp2772
a(I49
I201
tp2773
a(I48
I201
tp2774
a(I48
I200
tp2775
a(I47
I200
tp2776
a(I47
I201
tp2777
a(I46
I201
tp2778
a(I46
I200
tp2779
a(I45
I200
tp2780
a(I44
I200
tp2781
a(I45
I199
tp2782
a(I44
I199
tp2783
a(I43
I199
tp2784
a(I42
I199
tp2785
a(I41
I199
tp2786
a(I41
I198
tp2787
a(I42
I198
tp2788
a(I40
I198
tp2789
a(I39
I198
tp2790
a(I39
I199
tp2791
a(I39
I197
tp2792
a(I38
I197
tp2793
a(I38
I198
tp2794
a(I37
I197
tp2795
a(I37
I198
tp2796
a(I36
I197
tp2797
a(I36
I198
tp2798
a(I35
I198
tp2799
a(I34
I198
tp2800
a(I34
I199
tp2801
a(I33
I199
tp2802
a(I32
I199
tp2803
a(I32
I200
tp2804
a(I33
I198
tp2805
a(I32
I198
tp2806
a(I31
I198
tp2807
a(I31
I199
tp2808
a(I30
I199
tp2809
a(I30
I200
tp2810
a(I29
I200
tp2811
a(I29
I201
tp2812
a(I30
I201
tp2813
a(I31
I201
tp2814
a(I29
I202
tp2815
a(I30
I202
tp2816
a(I29
I203
tp2817
a(I28
I202
tp2818
a(I28
I203
tp2819
a(I28
I204
tp2820
a(I27
I203
tp2821
a(I27
I204
tp2822
a(I27
I205
tp2823
a(I26
I205
tp2824
a(I25
I205
tp2825
a(I25
I204
tp2826
a(I24
I205
tp2827
a(I24
I206
tp2828
a(I23
I206
tp2829
a(I23
I207
tp2830
a(I23
I208
tp2831
a(I22
I208
tp2832
a(I21
I208
tp2833
a(I21
I209
tp2834
a(I20
I209
tp2835
a(I20
I210
tp2836
a(I19
I210
tp2837
a(I18
I210
tp2838
a(I17
I210
tp2839
a(I16
I210
tp2840
a(I15
I210
tp2841
a(I15
I211
tp2842
a(I15
I209
tp2843
a(I14
I209
tp2844
a(I13
I209
tp2845
a(I13
I208
tp2846
a(I13
I207
tp2847
a(I12
I207
tp2848
a(I12
I208
tp2849
a(I11
I207
tp2850
a(I11
I206
tp2851
a(I10
I206
tp2852
a(I10
I205
tp2853
a(I10
I204
tp2854
a(I10
I203
tp2855
a(I10
I202
tp2856
a(I9
I202
tp2857
a(I9
I203
tp2858
a(I10
I201
tp2859
a(I9
I201
tp2860
a(I11
I201
tp2861
a(I11
I200
tp2862
a(I11
I199
tp2863
a(I12
I199
tp2864
a(I12
I198
tp2865
a(I12
I197
tp2866
a(I11
I197
tp2867
a(I11
I198
tp2868
a(I11
I196
tp2869
a(I11
I195
tp2870
a(I10
I196
tp2871
a(I9
I196
tp2872
a(I9
I195
tp2873
a(I9
I194
tp2874
a(I8
I195
tp2875
a(I8
I194
tp2876
a(I7
I194
tp2877
a(I6
I194
tp2878
a(I7
I193
tp2879
a(I6
I193
tp2880
a(I5
I193
tp2881
a(I5
I192
tp2882
a(I6
I192
tp2883
a(I4
I192
tp2884
a(I5
I191
tp2885
a(I4
I191
tp2886
a(I5
I190
tp2887
a(I5
I189
tp2888
a(I5
I188
tp2889
a(I4
I190
tp2890
a(I4
I189
tp2891
a(I3
I190
tp2892
a(I3
I189
tp2893
a(I3
I188
tp2894
a(I4
I188
tp2895
a(I4
I187
tp2896
a(I5
I187
tp2897
a(I5
I186
tp2898
a(I6
I186
tp2899
a(I7
I186
tp2900
a(I7
I185
tp2901
a(I8
I186
tp2902
a(I9
I186
tp2903
a(I10
I186
tp2904
a(I10
I185
tp2905
a(I11
I185
tp2906
a(I11
I184
tp2907
a(I11
I183
tp2908
a(I12
I183
tp2909
a(I12
I182
tp2910
a(I13
I183
tp2911
a(I13
I182
tp2912
a(I13
I184
tp2913
a(I11
I182
tp2914
a(I11
I181
tp2915
a(I12
I181
tp2916
a(I13
I181
tp2917
a(I11
I180
tp2918
a(I11
I179
tp2919
a(I12
I180
tp2920
a(I12
I179
tp2921
a(I12
I178
tp2922
a(I12
I177
tp2923
a(I11
I177
tp2924
a(I11
I178
tp2925
a(I10
I177
tp2926
a(I10
I176
tp2927
a(I10
I178
tp2928
a(I12
I176
tp2929
a(I11
I176
tp2930
a(I12
I175
tp2931
a(I12
I174
tp2932
a(I12
I173
tp2933
a(I13
I173
tp2934
a(I12
I172
tp2935
a(I12
I171
tp2936
a(I13
I171
tp2937
a(I13
I170
tp2938
a(I13
I169
tp2939
a(I12
I170
tp2940
a(I14
I170
tp2941
a(I14
I169
tp2942
a(I15
I169
tp2943
a(I16
I169
tp2944
a(I16
I168
tp2945
a(I15
I168
tp2946
a(I17
I168
tp2947
a(I17
I169
tp2948
a(I17
I170
tp2949
a(I18
I170
tp2950
a(I19
I170
tp2951
a(I20
I170
tp2952
a(I20
I171
tp2953
a(I19
I171
tp2954
a(I21
I170
tp2955
a(I21
I171
tp2956
a(I21
I172
tp2957
a(I22
I172
tp2958
a(I22
I173
tp2959
a(I23
I173
tp2960
a(I22
I174
tp2961
a(I23
I174
tp2962
a(I24
I174
tp2963
a(I23
I175
tp2964
a(I23
I176
tp2965
a(I24
I176
tp2966
a(I24
I177
tp2967
a(I24
I178
tp2968
a(I25
I177
tp2969
a(I26
I177
tp2970
a(I26
I178
tp2971
a(I25
I178
tp2972
a(I25
I179
tp2973
a(I26
I179
tp2974
a(I27
I179
tp2975
a(I26
I180
tp2976
a(I27
I180
tp2977
a(I27
I181
tp2978
a(I27
I182
tp2979
a(I27
I183
tp2980
a(I27
I184
tp2981
a(I28
I183
tp2982
a(I28
I184
tp2983
a(I28
I185
tp2984
a(I29
I185
tp2985
a(I30
I185
tp2986
a(I30
I186
tp2987
a(I31
I186
tp2988
a(I32
I186
tp2989
a(I32
I187
tp2990
a(I33
I187
tp2991
a(I34
I187
tp2992
a(I34
I186
tp2993
a(I35
I187
tp2994
a(I36
I187
tp2995
a(I37
I187
tp2996
a(I38
I187
tp2997
a(I39
I187
tp2998
a(I40
I187
tp2999
a(I39
I186
tp3000
a(I40
I186
tp3001
a(I41
I186
tp3002
a(I42
I186
tp3003
a(I43
I186
tp3004
a(I44
I186
tp3005
a(I44
I187
tp3006
a(I45
I187
tp3007
a(I46
I187
tp3008
a(I46
I186
tp3009
a(I47
I186
tp3010
a(I47
I187
tp3011
a(I46
I185
tp3012
a(I47
I185
tp3013
a(I48
I185
tp3014
a(I48
I186
tp3015
a(I49
I185
tp3016
a(I50
I185
tp3017
a(I50
I184
tp3018
a(I50
I183
tp3019
a(I51
I185
tp3020
a(I51
I186
tp3021
a(I52
I186
tp3022
a(I52
I187
tp3023
a(I52
I185
tp3024
a(I53
I186
tp3025
a(I53
I187
tp3026
a(I53
I188
tp3027
a(I54
I188
tp3028
a(I55
I188
tp3029
a(I56
I188
tp3030
a(I56
I189
tp3031
a(I57
I189
tp3032
a(I58
I190
tp3033
a(I59
I190
tp3034
a(I59
I191
tp3035
a(I60
I191
tp3036
a(I61
I192
tp3037
a(I55
I187
tp3038
a(I54
I187
tp3039
a(I51
I184
tp3040
a(I51
I183
tp3041
a(I51
I182
tp3042
a(I51
I181
tp3043
a(I50
I182
tp3044
a(I49
I182
tp3045
a(I49
I181
tp3046
a(I49
I180
tp3047
a(I49
I179
tp3048
a(I50
I179
tp3049
a(I51
I179
tp3050
a(I51
I180
tp3051
a(I50
I178
tp3052
a(I51
I178
tp3053
a(I50
I177
tp3054
a(I50
I176
tp3055
a(I50
I175
tp3056
a(I51
I175
tp3057
a(I49
I176
tp3058
a(I51
I177
tp3059
a(I51
I176
tp3060
a(I52
I177
tp3061
a(I52
I178
tp3062
a(I52
I176
tp3063
a(I52
I175
tp3064
a(I53
I175
tp3065
a(I54
I175
tp3066
a(I55
I175
tp3067
a(I53
I174
tp3068
a(I52
I174
tp3069
a(I52
I173
tp3070
a(I52
I172
tp3071
a(I51
I172
tp3072
a(I52
I171
tp3073
a(I52
I170
tp3074
a(I52
I169
tp3075
a(I51
I170
tp3076
a(I51
I169
tp3077
a(I51
I168
tp3078
a(I52
I168
tp3079
a(I51
I167
tp3080
a(I52
I167
tp3081
a(I53
I167
tp3082
a(I53
I168
tp3083
a(I53
I169
tp3084
a(I54
I169
tp3085
a(I54
I168
tp3086
a(I55
I168
tp3087
a(I50
I167
tp3088
a(I50
I166
tp3089
a(I50
I165
tp3090
a(I50
I164
tp3091
a(I50
I163
tp3092
a(I50
I162
tp3093
a(I51
I162
tp3094
a(I51
I161
tp3095
a(I52
I161
tp3096
a(I52
I162
tp3097
a(I51
I160
tp3098
a(I52
I160
tp3099
a(I51
I159
tp3100
a(I52
I159
tp3101
a(I53
I159
tp3102
a(I53
I160
tp3103
a(I54
I160
tp3104
a(I54
I159
tp3105
a(I55
I160
tp3106
a(I53
I161
tp3107
a(I54
I161
tp3108
a(I55
I161
tp3109
a(I51
I158
tp3110
a(I50
I159
tp3111
a(I50
I158
tp3112
a(I50
I157
tp3113
a(I49
I157
tp3114
a(I49
I156
tp3115
a(I48
I156
tp3116
a(I50
I156
tp3117
a(I50
I155
tp3118
a(I49
I155
tp3119
a(I50
I154
tp3120
a(I51
I154
tp3121
a(I52
I154
tp3122
a(I53
I154
tp3123
a(I54
I154
tp3124
a(I55
I154
tp3125
a(I53
I153
tp3126
a(I53
I152
tp3127
a(I54
I153
tp3128
a(I52
I155
tp3129
a(I52
I153
tp3130
a(I51
I153
tp3131
a(I51
I152
tp3132
a(I51
I151
tp3133
a(I50
I151
tp3134
a(I50
I150
tp3135
a(I49
I150
tp3136
a(I50
I149
tp3137
a(I49
I149
tp3138
a(I50
I148
tp3139
a(I50
I147
tp3140
a(I49
I147
tp3141
a(I48
I147
tp3142
a(I48
I148
tp3143
a(I48
I149
tp3144
a(I47
I147
tp3145
a(I49
I148
tp3146
a(I51
I148
tp3147
a(I52
I148
tp3148
a(I53
I148
tp3149
a(I53
I147
tp3150
a(I54
I147
tp3151
a(I55
I147
tp3152
a(I54
I146
tp3153
a(I55
I146
tp3154
a(I54
I148
tp3155
a(I55
I148
tp3156
a(I56
I148
tp3157
a(I56
I147
tp3158
a(I52
I147
tp3159
a(I51
I147
tp3160
a(I52
I151
tp3161
a(I51
I150
tp3162
a(I52
I152
tp3163
a(I51
I155
tp3164
a(I51
I163
tp3165
a(I49
I164
tp3166
a(I49
I166
tp3167
a(I49
I165
tp3168
a(I50
I168
tp3169
a(I53
I170
tp3170
a(I51
I171
tp3171
a(I51
I173
tp3172
a(I51
I174
tp3173
a(I54
I174
tp3174
a(I54
I173
tp3175
a(I55
I173
tp3176
a(I56
I173
tp3177
a(I55
I174
tp3178
a(I56
I174
tp3179
a(I57
I174
tp3180
a(I57
I173
tp3181
a(I58
I173
tp3182
a(I58
I172
tp3183
a(I59
I172
tp3184
a(I60
I172
tp3185
a(I61
I172
tp3186
a(I62
I172
tp3187
a(I63
I172
tp3188
a(I64
I172
tp3189
a(I65
I172
tp3190
a(I66
I172
tp3191
a(I66
I171
tp3192
a(I67
I171
tp3193
a(I68
I171
tp3194
a(I68
I172
tp3195
a(I69
I171
tp3196
a(I70
I171
tp3197
a(I71
I171
tp3198
a(I72
I171
tp3199
a(I70
I172
tp3200
a(I71
I172
tp3201
a(I72
I172
tp3202
a(I73
I172
tp3203
a(I74
I172
tp3204
a(I75
I172
tp3205
a(I75
I171
tp3206
a(I76
I171
tp3207
a(I77
I171
tp3208
a(I77
I172
tp3209
a(I78
I171
tp3210
a(I79
I171
tp3211
a(I79
I172
tp3212
a(I80
I172
tp3213
a(I81
I172
tp3214
a(I82
I172
tp3215
a(I83
I172
tp3216
a(I83
I173
tp3217
a(I84
I173
tp3218
a(I85
I173
tp3219
a(I85
I172
tp3220
a(I86
I173
tp3221
a(I86
I172
tp3222
a(I87
I173
tp3223
a(I87
I172
tp3224
a(I88
I172
tp3225
a(I88
I173
tp3226
a(I89
I173
tp3227
a(I90
I173
tp3228
a(I91
I173
tp3229
a(I90
I174
tp3230
a(I91
I174
tp3231
a(I92
I174
tp3232
a(I93
I174
tp3233
a(I93
I173
tp3234
a(I94
I174
tp3235
a(I95
I174
tp3236
a(I95
I175
tp3237
a(I96
I175
tp3238
a(I96
I174
tp3239
a(I97
I174
tp3240
a(I98
I174
tp3241
a(I99
I174
tp3242
a(I99
I175
tp3243
a(I100
I175
tp3244
a(I99
I176
tp3245
a(I100
I176
tp3246
a(I101
I176
tp3247
a(I101
I175
tp3248
a(I102
I175
tp3249
a(I103
I175
tp3250
a(I104
I175
tp3251
a(I103
I176
tp3252
a(I104
I176
tp3253
a(I104
I177
tp3254
a(I105
I177
tp3255
a(I106
I177
tp3256
a(I105
I176
tp3257
a(I106
I176
tp3258
a(I107
I176
tp3259
a(I107
I177
tp3260
a(I102
I176
tp3261
a(I98
I175
tp3262
a(I97
I175
tp3263
a(I94
I173
tp3264
a(I92
I173
tp3265
a(I84
I172
tp3266
a(I78
I172
tp3267
a(I74
I171
tp3268
a(I76
I172
tp3269
a(I73
I171
tp3270
a(I69
I172
tp3271
a(I67
I172
tp3272
a(I64
I171
tp3273
a(I65
I171
tp3274
a(I59
I173
tp3275
a(I53
I173
tp3276
a(I49
I177
tp3277
a(I48
I177
tp3278
a(I47
I177
tp3279
a(I47
I176
tp3280
a(I48
I176
tp3281
a(I46
I177
tp3282
a(I45
I177
tp3283
a(I45
I176
tp3284
a(I44
I177
tp3285
a(I44
I176
tp3286
a(I43
I177
tp3287
a(I43
I176
tp3288
a(I42
I177
tp3289
a(I42
I176
tp3290
a(I41
I177
tp3291
a(I40
I177
tp3292
a(I40
I176
tp3293
a(I39
I177
tp3294
a(I38
I177
tp3295
a(I38
I176
tp3296
a(I39
I176
tp3297
a(I37
I177
tp3298
a(I37
I176
tp3299
a(I36
I176
tp3300
a(I35
I176
tp3301
a(I34
I176
tp3302
a(I34
I175
tp3303
a(I35
I175
tp3304
a(I33
I175
tp3305
a(I33
I174
tp3306
a(I32
I175
tp3307
a(I32
I174
tp3308
a(I41
I176
tp3309
a(I46
I176
tp3310
a(I49
I178
tp3311
a(I50
I180
tp3312
a(I49
I183
tp3313
a(I50
I181
tp3314
a(I49
I184
tp3315
a(I49
I186
tp3316
a(I49
I187
tp3317
a(I48
I187
tp3318
a(I50
I187
tp3319
a(I50
I186
tp3320
a(I51
I187
tp3321
a(I45
I185
tp3322
a(I45
I186
tp3323
a(I41
I187
tp3324
a(I42
I187
tp3325
a(I43
I187
tp3326
a(I38
I186
tp3327
a(I33
I186
tp3328
a(I31
I187
tp3329
a(I29
I186
tp3330
a(I29
I184
tp3331
a(I28
I182
tp3332
a(I25
I180
tp3333
a(I26
I181
tp3334
a(I26
I182
tp3335
a(I24
I175
tp3336
a(I25
I176
tp3337
a(I25
I175
tp3338
a(I20
I169
tp3339
a(I19
I169
tp3340
a(I19
I168
tp3341
a(I19
I167
tp3342
a(I20
I167
tp3343
a(I19
I166
tp3344
a(I20
I166
tp3345
a(I19
I165
tp3346
a(I20
I165
tp3347
a(I20
I164
tp3348
a(I20
I163
tp3349
a(I19
I164
tp3350
a(I19
I163
tp3351
a(I19
I162
tp3352
a(I20
I162
tp3353
a(I21
I162
tp3354
a(I20
I161
tp3355
a(I20
I160
tp3356
a(I20
I159
tp3357
a(I20
I158
tp3358
a(I21
I158
tp3359
a(I22
I158
tp3360
a(I22
I157
tp3361
a(I22
I156
tp3362
a(I21
I156
tp3363
a(I22
I155
tp3364
a(I21
I155
tp3365
a(I22
I154
tp3366
a(I21
I154
tp3367
a(I22
I153
tp3368
a(I23
I153
tp3369
a(I22
I152
tp3370
a(I22
I151
tp3371
a(I23
I152
tp3372
a(I24
I152
tp3373
a(I24
I151
tp3374
a(I23
I151
tp3375
a(I24
I150
tp3376
a(I25
I150
tp3377
a(I25
I149
tp3378
a(I25
I151
tp3379
a(I23
I150
tp3380
a(I22
I150
tp3381
a(I24
I149
tp3382
a(I23
I149
tp3383
a(I24
I148
tp3384
a(I25
I148
tp3385
a(I23
I148
tp3386
a(I24
I147
tp3387
a(I25
I147
tp3388
a(I24
I146
tp3389
a(I24
I145
tp3390
a(I24
I144
tp3391
a(I24
I143
tp3392
a(I23
I144
tp3393
a(I23
I145
tp3394
a(I25
I145
tp3395
a(I26
I145
tp3396
a(I25
I144
tp3397
a(I25
I143
tp3398
a(I26
I143
tp3399
a(I27
I143
tp3400
a(I27
I144
tp3401
a(I27
I145
tp3402
a(I27
I146
tp3403
a(I27
I147
tp3404
a(I27
I148
tp3405
a(I28
I147
tp3406
a(I26
I146
tp3407
a(I26
I147
tp3408
a(I26
I148
tp3409
a(I26
I149
tp3410
a(I28
I145
tp3411
a(I28
I146
tp3412
a(I29
I145
tp3413
a(I29
I146
tp3414
a(I28
I144
tp3415
a(I29
I144
tp3416
a(I30
I144
tp3417
a(I30
I145
tp3418
a(I30
I143
tp3419
a(I31
I144
tp3420
a(I31
I143
tp3421
a(I31
I142
tp3422
a(I30
I142
tp3423
a(I30
I141
tp3424
a(I30
I140
tp3425
a(I29
I140
tp3426
a(I30
I139
tp3427
a(I32
I142
tp3428
a(I33
I142
tp3429
a(I33
I143
tp3430
a(I34
I142
tp3431
a(I35
I142
tp3432
a(I34
I141
tp3433
a(I35
I141
tp3434
a(I36
I141
tp3435
a(I37
I141
tp3436
a(I37
I142
tp3437
a(I36
I142
tp3438
a(I38
I141
tp3439
a(I39
I141
tp3440
a(I40
I141
tp3441
a(I41
I141
tp3442
a(I42
I141
tp3443
a(I43
I141
tp3444
a(I44
I141
tp3445
a(I45
I141
tp3446
a(I46
I141
tp3447
a(I47
I141
tp3448
a(I48
I141
tp3449
a(I48
I142
tp3450
a(I49
I142
tp3451
a(I50
I142
tp3452
a(I51
I142
tp3453
a(I50
I141
tp3454
a(I51
I141
tp3455
a(I52
I141
tp3456
a(I53
I141
tp3457
a(I54
I141
tp3458
a(I54
I142
tp3459
a(I53
I142
tp3460
a(I52
I142
tp3461
a(I52
I143
tp3462
a(I51
I143
tp3463
a(I52
I144
tp3464
a(I53
I144
tp3465
a(I53
I145
tp3466
a(I54
I144
tp3467
a(I54
I145
tp3468
a(I53
I143
tp3469
a(I55
I142
tp3470
a(I56
I142
tp3471
a(I55
I141
tp3472
a(I56
I141
tp3473
a(I57
I141
tp3474
a(I58
I141
tp3475
a(I57
I142
tp3476
a(I58
I142
tp3477
a(I59
I142
tp3478
a(I60
I142
tp3479
a(I61
I142
tp3480
a(I62
I142
tp3481
a(I63
I142
tp3482
a(I64
I142
tp3483
a(I65
I142
tp3484
a(I60
I141
tp3485
a(I59
I141
tp3486
a(I49
I141
tp3487
a(I32
I143
tp3488
a(I29
I143
tp3489
a(I29
I142
tp3490
a(I28
I142
tp3491
a(I28
I141
tp3492
a(I29
I141
tp3493
a(I28
I143
tp3494
a(I27
I142
tp3495
a(I26
I144
tp3496
a(I25
I142
tp3497
a(I24
I142
tp3498
a(I25
I141
tp3499
a(I24
I141
tp3500
a(I24
I140
tp3501
a(I24
I139
tp3502
a(I23
I139
tp3503
a(I22
I139
tp3504
a(I23
I138
tp3505
a(I22
I138
tp3506
a(I23
I137
tp3507
a(I22
I137
tp3508
a(I22
I136
tp3509
a(I21
I135
tp3510
a(I23
I140
tp3511
a(I23
I141
tp3512
a(I23
I142
tp3513
a(I23
I143
tp3514
a(I23
I146
tp3515
a(I23
I147
tp3516
a(I25
I146
tp3517
a(I23
I154
tp3518
a(I23
I156
tp3519
a(I23
I158
tp3520
a(I23
I157
tp3521
a(I24
I158
tp3522
a(I25
I158
tp3523
a(I26
I158
tp3524
a(I27
I158
tp3525
a(I28
I158
tp3526
a(I29
I158
tp3527
a(I29
I159
tp3528
a(I28
I159
tp3529
a(I27
I159
tp3530
a(I27
I160
tp3531
a(I28
I160
tp3532
a(I29
I160
tp3533
a(I29
I161
tp3534
a(I30
I161
tp3535
a(I30
I162
tp3536
a(I29
I162
tp3537
a(I28
I162
tp3538
a(I28
I163
tp3539
a(I28
I161
tp3540
a(I30
I163
tp3541
a(I29
I163
tp3542
a(I30
I164
tp3543
a(I29
I164
tp3544
a(I28
I164
tp3545
a(I30
I165
tp3546
a(I29
I165
tp3547
a(I30
I166
tp3548
a(I29
I166
tp3549
a(I30
I167
tp3550
a(I29
I167
tp3551
a(I30
I168
tp3552
a(I29
I168
tp3553
a(I30
I169
tp3554
a(I29
I169
tp3555
a(I30
I170
tp3556
a(I29
I170
tp3557
a(I29
I171
tp3558
a(I29
I172
tp3559
a(I30
I172
tp3560
a(I31
I172
tp3561
a(I30
I173
tp3562
a(I31
I173
tp3563
a(I31
I174
tp3564
a(I32
I173
tp3565
a(I30
I171
tp3566
a(I31
I171
tp3567
a(I26
I157
tp3568
a(I27
I157
tp3569
a(I24
I157
tp3570
a(I25
I157
tp3571
a(I23
I159
tp3572
a(I22
I159
tp3573
a(I20
I157
tp3574
a(I21
I157
tp3575
a(I19
I157
tp3576
a(I19
I160
tp3577
a(I19
I159
tp3578
a(I18
I159
tp3579
a(I18
I158
tp3580
a(I17
I158
tp3581
a(I17
I159
tp3582
a(I16
I159
tp3583
a(I16
I160
tp3584
a(I15
I160
tp3585
a(I15
I159
tp3586
a(I14
I159
tp3587
a(I14
I160
tp3588
a(I13
I160
tp3589
a(I12
I160
tp3590
a(I12
I159
tp3591
a(I11
I159
tp3592
a(I10
I159
tp3593
a(I10
I158
tp3594
a(I9
I158
tp3595
a(I8
I158
tp3596
a(I8
I157
tp3597
a(I7
I157
tp3598
a(I7
I156
tp3599
a(I7
I155
tp3600
a(I6
I156
tp3601
a(I5
I156
tp3602
a(I6
I155
tp3603
a(I5
I155
tp3604
a(I4
I155
tp3605
a(I5
I154
tp3606
a(I5
I153
tp3607
a(I6
I153
tp3608
a(I6
I152
tp3609
a(I6
I151
tp3610
a(I5
I152
tp3611
a(I5
I151
tp3612
a(I4
I151
tp3613
a(I5
I150
tp3614
a(I5
I149
tp3615
a(I6
I149
tp3616
a(I6
I150
tp3617
a(I5
I148
tp3618
a(I6
I148
tp3619
a(I6
I147
tp3620
a(I6
I146
tp3621
a(I7
I146
tp3622
a(I5
I146
tp3623
a(I5
I145
tp3624
a(I6
I145
tp3625
a(I5
I144
tp3626
a(I4
I144
tp3627
a(I4
I143
tp3628
a(I3
I144
tp3629
a(I3
I143
tp3630
a(I2
I143
tp3631
a(I2
I142
tp3632
a(I3
I142
tp3633
a(I2
I141
tp3634
a(I1
I142
tp3635
a(I1
I141
tp3636
a(I1
I140
tp3637
a(I1
I139
tp3638
a(I0
I140
tp3639
a(I0
I139
tp3640
a(I0
I138
tp3641
a(I1
I138
tp3642
a(I0
I137
tp3643
a(I1
I137
tp3644
a(I1
I136
tp3645
a(I2
I136
tp3646
a(I3
I136
tp3647
a(I2
I135
tp3648
a(I3
I135
tp3649
a(I3
I134
tp3650
a(I4
I134
tp3651
a(I4
I135
tp3652
a(I5
I134
tp3653
a(I4
I133
tp3654
a(I5
I133
tp3655
a(I6
I133
tp3656
a(I6
I132
tp3657
a(I5
I132
tp3658
a(I6
I131
tp3659
a(I7
I131
tp3660
a(I7
I130
tp3661
a(I8
I130
tp3662
a(I9
I130
tp3663
a(I8
I129
tp3664
a(I9
I129
tp3665
a(I10
I129
tp3666
a(I9
I128
tp3667
a(I10
I128
tp3668
a(I11
I128
tp3669
a(I11
I127
tp3670
a(I11
I126
tp3671
a(I10
I126
tp3672
a(I10
I125
tp3673
a(I10
I124
tp3674
a(I10
I123
tp3675
a(I9
I123
tp3676
a(I9
I122
tp3677
a(I10
I122
tp3678
a(I9
I121
tp3679
a(I10
I121
tp3680
a(I9
I120
tp3681
a(I10
I120
tp3682
a(I9
I119
tp3683
a(I10
I119
tp3684
a(I10
I118
tp3685
a(I9
I118
tp3686
a(I10
I117
tp3687
a(I10
I116
tp3688
a(I11
I116
tp3689
a(I10
I115
tp3690
a(I10
I114
tp3691
a(I9
I114
tp3692
a(I10
I113
tp3693
a(I9
I113
tp3694
a(I9
I112
tp3695
a(I9
I111
tp3696
a(I10
I112
tp3697
a(I10
I111
tp3698
a(I10
I110
tp3699
a(I9
I110
tp3700
a(I10
I109
tp3701
a(I9
I109
tp3702
a(I10
I108
tp3703
a(I9
I108
tp3704
a(I10
I107
tp3705
a(I9
I107
tp3706
a(I10
I106
tp3707
a(I9
I106
tp3708
a(I10
I105
tp3709
a(I11
I105
tp3710
a(I10
I104
tp3711
a(I10
I103
tp3712
a(I10
I102
tp3713
a(I11
I103
tp3714
a(I11
I104
tp3715
a(I11
I102
tp3716
a(I11
I101
tp3717
a(I10
I101
tp3718
a(I10
I100
tp3719
a(I11
I100
tp3720
a(I10
I99
tp3721
a(I11
I99
tp3722
a(I12
I99
tp3723
a(I12
I100
tp3724
a(I12
I98
tp3725
a(I12
I97
tp3726
a(I13
I98
tp3727
a(I13
I97
tp3728
a(I14
I97
tp3729
a(I15
I97
tp3730
a(I16
I97
tp3731
a(I15
I96
tp3732
a(I16
I96
tp3733
a(I17
I96
tp3734
a(I18
I96
tp3735
a(I18
I95
tp3736
a(I19
I96
tp3737
a(I20
I96
tp3738
a(I21
I96
tp3739
a(I20
I97
tp3740
a(I21
I97
tp3741
a(I21
I98
tp3742
a(I22
I97
tp3743
a(I23
I97
tp3744
a(I22
I98
tp3745
a(I23
I98
tp3746
a(I22
I99
tp3747
a(I23
I99
tp3748
a(I24
I99
tp3749
a(I24
I98
tp3750
a(I25
I99
tp3751
a(I25
I98
tp3752
a(I25
I97
tp3753
a(I24
I97
tp3754
a(I25
I96
tp3755
a(I24
I96
tp3756
a(I25
I95
tp3757
a(I24
I95
tp3758
a(I24
I94
tp3759
a(I24
I93
tp3760
a(I23
I93
tp3761
a(I24
I92
tp3762
a(I23
I92
tp3763
a(I23
I91
tp3764
a(I22
I92
tp3765
a(I22
I91
tp3766
a(I21
I91
tp3767
a(I21
I90
tp3768
a(I22
I90
tp3769
a(I20
I90
tp3770
a(I21
I89
tp3771
a(I20
I89
tp3772
a(I19
I89
tp3773
a(I24
I100
tp3774
a(I25
I100
tp3775
a(I23
I100
tp3776
a(I22
I100
tp3777
a(I24
I101
tp3778
a(I25
I101
tp3779
a(I23
I101
tp3780
a(I24
I102
tp3781
a(I25
I102
tp3782
a(I23
I102
tp3783
a(I24
I103
tp3784
a(I25
I103
tp3785
a(I23
I103
tp3786
a(I24
I104
tp3787
a(I25
I104
tp3788
a(I24
I105
tp3789
a(I25
I105
tp3790
a(I24
I106
tp3791
a(I25
I106
tp3792
a(I24
I107
tp3793
a(I25
I107
tp3794
a(I24
I108
tp3795
a(I25
I108
tp3796
a(I25
I109
tp3797
a(I24
I109
tp3798
a(I25
I110
tp3799
a(I25
I111
tp3800
a(I26
I110
tp3801
a(I26
I111
tp3802
a(I26
I112
tp3803
a(I26
I113
tp3804
a(I25
I112
tp3805
a(I25
I113
tp3806
a(I25
I114
tp3807
a(I26
I114
tp3808
a(I27
I114
tp3809
a(I27
I115
tp3810
a(I26
I115
tp3811
a(I27
I116
tp3812
a(I27
I117
tp3813
a(I28
I117
tp3814
a(I27
I118
tp3815
a(I28
I118
tp3816
a(I29
I118
tp3817
a(I29
I119
tp3818
a(I28
I119
tp3819
a(I30
I119
tp3820
a(I29
I120
tp3821
a(I30
I120
tp3822
a(I31
I120
tp3823
a(I31
I121
tp3824
a(I30
I121
tp3825
a(I32
I121
tp3826
a(I33
I121
tp3827
a(I33
I122
tp3828
a(I32
I122
tp3829
a(I34
I122
tp3830
a(I35
I122
tp3831
a(I36
I122
tp3832
a(I37
I122
tp3833
a(I38
I122
tp3834
a(I39
I122
tp3835
a(I40
I122
tp3836
a(I40
I123
tp3837
a(I41
I123
tp3838
a(I39
I123
tp3839
a(I41
I122
tp3840
a(I42
I122
tp3841
a(I43
I122
tp3842
a(I44
I122
tp3843
a(I45
I122
tp3844
a(I44
I123
tp3845
a(I45
I123
tp3846
a(I46
I123
tp3847
a(I47
I123
tp3848
a(I47
I122
tp3849
a(I48
I122
tp3850
a(I46
I122
tp3851
a(I48
I123
tp3852
a(I48
I124
tp3853
a(I49
I124
tp3854
a(I49
I123
tp3855
a(I50
I124
tp3856
a(I51
I124
tp3857
a(I52
I124
tp3858
a(I53
I124
tp3859
a(I53
I123
tp3860
a(I53
I122
tp3861
a(I54
I122
tp3862
a(I54
I121
tp3863
a(I55
I122
tp3864
a(I55
I121
tp3865
a(I56
I122
tp3866
a(I57
I122
tp3867
a(I57
I121
tp3868
a(I56
I121
tp3869
a(I56
I120
tp3870
a(I56
I119
tp3871
a(I56
I118
tp3872
a(I56
I117
tp3873
a(I57
I117
tp3874
a(I57
I116
tp3875
a(I58
I117
tp3876
a(I58
I116
tp3877
a(I59
I117
tp3878
a(I59
I116
tp3879
a(I60
I116
tp3880
a(I61
I116
tp3881
a(I61
I115
tp3882
a(I62
I115
tp3883
a(I63
I115
tp3884
a(I62
I114
tp3885
a(I61
I114
tp3886
a(I63
I114
tp3887
a(I59
I115
tp3888
a(I60
I115
tp3889
a(I58
I115
tp3890
a(I57
I115
tp3891
a(I58
I114
tp3892
a(I57
I114
tp3893
a(I59
I114
tp3894
a(I60
I114
tp3895
a(I58
I113
tp3896
a(I57
I113
tp3897
a(I58
I112
tp3898
a(I58
I111
tp3899
a(I57
I112
tp3900
a(I59
I112
tp3901
a(I59
I111
tp3902
a(I60
I111
tp3903
a(I61
I111
tp3904
a(I61
I110
tp3905
a(I60
I110
tp3906
a(I62
I110
tp3907
a(I63
I110
tp3908
a(I63
I109
tp3909
a(I62
I109
tp3910
a(I64
I109
tp3911
a(I65
I109
tp3912
a(I66
I109
tp3913
a(I66
I108
tp3914
a(I64
I108
tp3915
a(I65
I108
tp3916
a(I65
I107
tp3917
a(I66
I107
tp3918
a(I66
I106
tp3919
a(I66
I105
tp3920
a(I66
I104
tp3921
a(I67
I104
tp3922
a(I65
I105
tp3923
a(I67
I106
tp3924
a(I67
I107
tp3925
a(I67
I105
tp3926
a(I68
I106
tp3927
a(I68
I105
tp3928
a(I69
I106
tp3929
a(I68
I107
tp3930
a(I68
I108
tp3931
a(I67
I108
tp3932
a(I69
I107
tp3933
a(I69
I108
tp3934
a(I70
I107
tp3935
a(I71
I107
tp3936
a(I72
I107
tp3937
a(I70
I106
tp3938
a(I71
I106
tp3939
a(I70
I105
tp3940
a(I71
I105
tp3941
a(I72
I105
tp3942
a(I72
I106
tp3943
a(I73
I106
tp3944
a(I74
I106
tp3945
a(I73
I107
tp3946
a(I69
I105
tp3947
a(I70
I104
tp3948
a(I71
I104
tp3949
a(I69
I104
tp3950
a(I68
I104
tp3951
a(I70
I103
tp3952
a(I69
I103
tp3953
a(I71
I103
tp3954
a(I72
I103
tp3955
a(I73
I103
tp3956
a(I73
I104
tp3957
a(I72
I104
tp3958
a(I74
I103
tp3959
a(I75
I103
tp3960
a(I76
I103
tp3961
a(I75
I102
tp3962
a(I76
I102
tp3963
a(I77
I102
tp3964
a(I78
I102
tp3965
a(I79
I102
tp3966
a(I80
I102
tp3967
a(I79
I103
tp3968
a(I80
I103
tp3969
a(I78
I103
tp3970
a(I77
I103
tp3971
a(I79
I101
tp3972
a(I80
I101
tp3973
a(I81
I101
tp3974
a(I81
I102
tp3975
a(I82
I102
tp3976
a(I83
I102
tp3977
a(I82
I103
tp3978
a(I81
I103
tp3979
a(I83
I103
tp3980
a(I84
I103
tp3981
a(I78
I101
tp3982
a(I79
I100
tp3983
a(I78
I100
tp3984
a(I77
I100
tp3985
a(I77
I99
tp3986
a(I76
I99
tp3987
a(I75
I99
tp3988
a(I74
I99
tp3989
a(I75
I98
tp3990
a(I74
I98
tp3991
a(I73
I98
tp3992
a(I75
I97
tp3993
a(I74
I97
tp3994
a(I76
I97
tp3995
a(I77
I97
tp3996
a(I78
I97
tp3997
a(I79
I97
tp3998
a(I80
I97
tp3999
a(I79
I96
tp4000
a(I80
I96
tp4001
a(I81
I96
tp4002
a(I82
I96
tp4003
a(I83
I96
tp4004
a(I84
I96
tp4005
a(I85
I96
tp4006
a(I86
I96
tp4007
a(I87
I96
tp4008
a(I88
I96
tp4009
a(I89
I96
tp4010
a(I90
I96
tp4011
a(I91
I96
tp4012
a(I92
I96
tp4013
a(I93
I96
tp4014
a(I93
I97
tp4015
a(I94
I97
tp4016
a(I95
I97
tp4017
a(I96
I97
tp4018
a(I97
I97
tp4019
a(I98
I97
tp4020
a(I92
I97
tp4021
a(I91
I97
tp4022
a(I90
I97
tp4023
a(I89
I97
tp4024
a(I87
I97
tp4025
a(I88
I97
tp4026
a(I85
I97
tp4027
a(I86
I97
tp4028
a(I78
I96
tp4029
a(I77
I96
tp4030
a(I76
I98
tp4031
a(I57
I118
tp4032
a(I55
I119
tp4033
a(I55
I120
tp4034
a(I54
I120
tp4035
a(I57
I123
tp4036
a(I56
I123
tp4037
a(I58
I122
tp4038
a(I54
I124
tp4039
a(I54
I123
tp4040
a(I55
I124
tp4041
a(I55
I123
tp4042
a(I51
I125
tp4043
a(I52
I125
tp4044
a(I53
I125
tp4045
a(I53
I126
tp4046
a(I52
I126
tp4047
a(I54
I126
tp4048
a(I54
I127
tp4049
a(I55
I127
tp4050
a(I53
I127
tp4051
a(I52
I127
tp4052
a(I54
I128
tp4053
a(I55
I128
tp4054
a(I56
I128
tp4055
a(I57
I128
tp4056
a(I55
I129
tp4057
a(I55
I130
tp4058
a(I56
I129
tp4059
a(I57
I129
tp4060
a(I56
I130
tp4061
a(I57
I130
tp4062
a(I58
I130
tp4063
a(I59
I130
tp4064
a(I59
I129
tp4065
a(I60
I129
tp4066
a(I61
I129
tp4067
a(I62
I129
tp4068
a(I63
I129
tp4069
a(I64
I129
tp4070
a(I65
I129
tp4071
a(I66
I129
tp4072
a(I67
I129
tp4073
a(I58
I129
tp4074
a(I53
I128
tp4075
a(I53
I129
tp4076
a(I52
I129
tp4077
a(I51
I129
tp4078
a(I50
I129
tp4079
a(I50
I130
tp4080
a(I49
I130
tp4081
a(I48
I130
tp4082
a(I47
I130
tp4083
a(I48
I131
tp4084
a(I47
I131
tp4085
a(I46
I131
tp4086
a(I45
I131
tp4087
a(I44
I131
tp4088
a(I45
I130
tp4089
a(I44
I130
tp4090
a(I43
I130
tp4091
a(I42
I130
tp4092
a(I42
I131
tp4093
a(I41
I131
tp4094
a(I40
I131
tp4095
a(I39
I131
tp4096
a(I38
I131
tp4097
a(I37
I131
tp4098
a(I36
I131
tp4099
a(I37
I132
tp4100
a(I36
I132
tp4101
a(I35
I132
tp4102
a(I34
I132
tp4103
a(I33
I132
tp4104
a(I35
I131
tp4105
a(I34
I131
tp4106
a(I33
I131
tp4107
a(I32
I131
tp4108
a(I31
I131
tp4109
a(I32
I132
tp4110
a(I31
I132
tp4111
a(I30
I132
tp4112
a(I30
I131
tp4113
a(I29
I131
tp4114
a(I28
I131
tp4115
a(I29
I130
tp4116
a(I29
I129
tp4117
a(I28
I129
tp4118
a(I27
I129
tp4119
a(I26
I129
tp4120
a(I27
I130
tp4121
a(I26
I130
tp4122
a(I27
I131
tp4123
a(I27
I128
tp4124
a(I26
I128
tp4125
a(I26
I127
tp4126
a(I25
I127
tp4127
a(I25
I128
tp4128
a(I25
I129
tp4129
a(I25
I126
tp4130
a(I25
I125
tp4131
a(I24
I125
tp4132
a(I23
I125
tp4133
a(I23
I124
tp4134
a(I24
I124
tp4135
a(I23
I123
tp4136
a(I22
I123
tp4137
a(I24
I123
tp4138
a(I23
I122
tp4139
a(I24
I127
tp4140
a(I24
I126
tp4141
a(I28
I130
tp4142
a(I30
I130
tp4143
a(I31
I130
tp4144
a(I38
I132
tp4145
a(I43
I131
tp4146
a(I46
I130
tp4147
a(I51
I130
tp4148
a(I54
I129
tp4149
a(I53
I130
tp4150
a(I52
I130
tp4151
a(I54
I130
tp4152
a(I54
I125
tp4153
a(I51
I123
tp4154
a(I52
I123
tp4155
a(I50
I123
tp4156
a(I51
I122
tp4157
a(I52
I122
tp4158
a(I50
I122
tp4159
a(I49
I122
tp4160
a(I43
I123
tp4161
a(I42
I123
tp4162
a(I37
I123
tp4163
a(I38
I123
tp4164
a(I34
I121
tp4165
a(I26
I116
tp4166
a(I24
I110
tp4167
a(I19
I97
tp4168
a(I18
I97
tp4169
a(I14
I96
tp4170
a(I13
I96
tp4171
a(I15
I95
tp4172
a(I14
I95
tp4173
a(I13
I95
tp4174
a(I16
I95
tp4175
a(I17
I95
tp4176
a(I10
I98
tp4177
a(I11
I98
tp4178
a(I11
I97
tp4179
a(I11
I96
tp4180
a(I12
I96
tp4181
a(I11
I95
tp4182
a(I12
I95
tp4183
a(I11
I94
tp4184
a(I12
I94
tp4185
a(I12
I93
tp4186
a(I12
I92
tp4187
a(I13
I92
tp4188
a(I13
I91
tp4189
a(I14
I91
tp4190
a(I14
I90
tp4191
a(I13
I90
tp4192
a(I15
I90
tp4193
a(I14
I89
tp4194
a(I15
I89
tp4195
a(I16
I89
tp4196
a(I17
I89
tp4197
a(I18
I89
tp4198
a(I16
I90
tp4199
a(I16
I88
tp4200
a(I17
I88
tp4201
a(I18
I88
tp4202
a(I15
I88
tp4203
a(I11
I114
tp4204
a(I11
I115
tp4205
a(I12
I114
tp4206
a(I13
I114
tp4207
a(I14
I114
tp4208
a(I14
I113
tp4209
a(I15
I114
tp4210
a(I15
I113
tp4211
a(I16
I114
tp4212
a(I17
I114
tp4213
a(I18
I114
tp4214
a(I19
I114
tp4215
a(I18
I115
tp4216
a(I17
I115
tp4217
a(I19
I115
tp4218
a(I20
I115
tp4219
a(I20
I114
tp4220
a(I20
I116
tp4221
a(I19
I116
tp4222
a(I21
I116
tp4223
a(I21
I117
tp4224
a(I20
I117
tp4225
a(I21
I118
tp4226
a(I20
I118
tp4227
a(I22
I118
tp4228
a(I21
I119
tp4229
a(I21
I120
tp4230
a(I22
I119
tp4231
a(I22
I120
tp4232
a(I22
I121
tp4233
a(I22
I122
tp4234
a(I21
I121
tp4235
a(I23
I120
tp4236
a(I23
I121
tp4237
a(I18
I113
tp4238
a(I16
I113
tp4239
a(I17
I113
tp4240
a(I13
I115
tp4241
a(I12
I115
tp4242
a(I9
I116
tp4243
a(I9
I117
tp4244
a(I9
I115
tp4245
a(I11
I125
tp4246
a(I11
I124
tp4247
a(I9
I127
tp4248
a(I10
I127
tp4249
a(I7
I132
tp4250
a(I8
I131
tp4251
a(I2
I137
tp4252
a(I1
I135
tp4253
a(I4
I145
tp4254
a(I7
I148
tp4255
a(I7
I147
tp4256
a(I7
I149
tp4257
a(I7
I150
tp4258
a(I5
I147
tp4259
a(I4
I152
tp4260
a(I4
I153
tp4261
a(I4
I154
tp4262
a(I6
I154
tp4263
a(I6
I157
tp4264
a(I9
I157
tp4265
a(I13
I159
tp4266
a(I19
I158
tp4267
a(I19
I161
tp4268
a(I21
I161
tp4269
a(I21
I160
tp4270
a(I21
I159
tp4271
a(I22
I160
tp4272
a(I18
I165
tp4273
a(I18
I164
tp4274
a(I18
I166
tp4275
a(I18
I167
tp4276
a(I17
I167
tp4277
a(I18
I168
tp4278
a(I18
I169
tp4279
a(I18
I171
tp4280
a(I13
I172
tp4281
a(I11
I175
tp4282
a(I11
I174
tp4283
a(I11
I173
tp4284
a(I11
I172
tp4285
a(I10
I175
tp4286
a(I12
I185
tp4287
a(I12
I184
tp4288
a(I8
I185
tp4289
a(I9
I185
tp4290
a(I6
I187
tp4291
a(I7
I187
tp4292
a(I8
I187
tp4293
a(I6
I188
tp4294
a(I10
I195
tp4295
a(I10
I197
tp4296
a(I12
I196
tp4297
a(I12
I195
tp4298
a(I10
I199
tp4299
a(I10
I198
tp4300
a(I10
I200
tp4301
a(I11
I202
tp4302
a(I11
I204
tp4303
a(I11
I203
tp4304
a(I12
I206
tp4305
a(I12
I205
tp4306
a(I11
I205
tp4307
a(I14
I208
tp4308
a(I14
I210
tp4309
a(I16
I211
tp4310
a(I18
I209
tp4311
a(I18
I211
tp4312
a(I17
I211
tp4313
a(I19
I209
tp4314
a(I22
I207
tp4315
a(I24
I207
tp4316
a(I26
I203
tp4317
a(I26
I204
tp4318
a(I27
I202
tp4319
a(I28
I201
tp4320
a(I31
I200
tp4321
a(I33
I197
tp4322
a(I34
I197
tp4323
a(I35
I197
tp4324
a(I40
I199
tp4325
a(I43
I200
tp4326
a(I50
I201
tp4327
a(I54
I202
tp4328
a(I53
I202
tp4329
a(I60
I205
tp4330
a(I63
I206
tp4331
a(I62
I206
tp4332
a(I65
I206
tp4333
a(I64
I206
tp4334
a(I66
I206
tp4335
a(I68
I206
tp4336
a(I69
I206
tp4337
a(I70
I204
tp4338
a(I71
I204
tp4339
a(I70
I205
tp4340
a(I69
I205
tp4341
a(I71
I203
tp4342
a(I75
I198
tp4343
a(I74
I198
tp4344
a(I76
I198
tp4345
a(I78
I201
tp4346
a(I91
I206
tp4347
a(I95
I206
tp4348
a(I94
I206
tp4349
a(I93
I206
tp4350
a(I97
I206
tp4351
a(I98
I206
tp4352
a(I96
I206
tp4353
a(I105
I206
tp4354
a(I107
I205
tp4355
a(I108
I205
tp4356
a(I118
I203
tp4357
a(I117
I204
tp4358
a(I116
I204
tp4359
a(I121
I203
tp4360
a(I120
I203
tp4361
a(I125
I202
tp4362
a(I127
I203
tp4363
a(I136
I202
tp4364
a(I156
I202
tp4365
a(I162
I204
tp4366
a(I177
I209
tp4367
a(I178
I209
tp4368
a(I184
I212
tp4369
a(I183
I212
tp4370
a(I185
I212
tp4371
a(I184
I213
tp4372
a(I183
I213
tp4373
a(I185
I213
tp4374
a(I185
I214
tp4375
a(I186
I214
tp4376
a(I184
I214
tp4377
a(I180
I199
tp4378
a(I180
I201
tp4379
a(I178
I199
tp4380
a(I174
I199
tp4381
a(I175
I199
tp4382
a(I171
I198
tp4383
a(I168
I196
tp4384
a(I166
I197
tp4385
a(I156
I194
tp4386
a(I143
I189
tp4387
a(I138
I186
tp4388
a(I139
I187
tp4389
a(I140
I187
tp4390
a(I137
I185
tp4391
a(I138
I185
tp4392
a(I137
I186
tp4393
a(I137
I179
tp4394
a(I138
I179
tp4395
a(I139
I179
tp4396
a(I140
I179
tp4397
a(I141
I179
tp4398
a(I142
I179
tp4399
a(I143
I179
tp4400
a(I144
I180
tp4401
a(I145
I181
tp4402
a(I145
I182
tp4403
a(I140
I180
tp4404
a(I139
I180
tp4405
a(I140
I181
tp4406
a(I140
I182
tp4407
a(I140
I183
tp4408
a(I137
I178
tp4409
a(I137
I177
tp4410
a(I137
I173
tp4411
a(I136
I173
tp4412
a(I137
I174
tp4413
a(I138
I174
tp4414
a(I136
I169
tp4415
a(I136
I168
tp4416
a(I135
I171
tp4417
a(I132
I163
tp4418
a(I134
I163
tp4419
a(I134
I164
tp4420
a(I132
I162
tp4421
a(I129
I156
tp4422
a(I132
I158
tp4423
a(I136
I157
tp4424
a(I136
I156
tp4425
a(I137
I157
tp4426
a(I137
I158
tp4427
a(I136
I158
tp4428
a(I135
I158
tp4429
a(I136
I159
tp4430
a(I135
I159
tp4431
a(I134
I159
tp4432
a(I137
I159
tp4433
a(I138
I160
tp4434
a(I134
I152
tp4435
a(I133
I150
tp4436
a(I132
I148
tp4437
a(I130
I148
tp4438
a(I129
I146
tp4439
a(I135
I147
tp4440
a(I135
I142
tp4441
a(I135
I143
tp4442
a(I133
I142
tp4443
a(I125
I127
tp4444
a(I125
I121
tp4445
a(I125
I122
tp4446
a(I125
I120
tp4447
a(I125
I119
tp4448
a(I127
I119
tp4449
a(I127
I118
tp4450
a(I128
I112
tp4451
a(I127
I113
tp4452
a(I129
I114
tp4453
a(I130
I112
tp4454
a(I129
I112
tp4455
a(I130
I111
tp4456
a(I130
I114
tp4457
a(I134
I111
tp4458
a(I141
I110
tp4459
a(I142
I110
tp4460
a(I140
I110
tp4461
a(I148
I109
tp4462
a(I150
I110
tp4463
a(I149
I110
tp4464
a(I149
I111
tp4465
a(I149
I112
tp4466
a(I150
I111
tp4467
a(I150
I112
tp4468
a(I150
I113
tp4469
a(I150
I114
tp4470
a(I149
I114
tp4471
a(I149
I113
tp4472
a(I149
I115
tp4473
a(I149
I116
tp4474
a(I150
I116
tp4475
a(I149
I117
tp4476
a(I149
I118
tp4477
a(I149
I119
tp4478
a(I149
I120
tp4479
a(I149
I121
tp4480
a(I149
I122
tp4481
a(I148
I122
tp4482
a(I148
I123
tp4483
a(I148
I124
tp4484
a(I148
I125
tp4485
a(I148
I126
tp4486
a(I148
I127
tp4487
a(I149
I127
tp4488
a(I149
I128
tp4489
a(I148
I128
tp4490
a(I147
I128
tp4491
a(I147
I129
tp4492
a(I146
I128
tp4493
a(I146
I127
tp4494
a(I146
I129
tp4495
a(I145
I129
tp4496
a(I145
I130
tp4497
a(I145
I131
tp4498
a(I144
I131
tp4499
a(I143
I131
tp4500
a(I143
I132
tp4501
a(I143
I133
tp4502
a(I142
I133
tp4503
a(I142
I134
tp4504
a(I141
I134
tp4505
a(I141
I135
tp4506
a(I140
I135
tp4507
a(I140
I136
tp4508
a(I141
I136
tp4509
a(I140
I137
tp4510
a(I139
I137
tp4511
a(I140
I138
tp4512
a(I139
I138
tp4513
a(I139
I139
tp4514
a(I139
I140
tp4515
a(I138
I140
tp4516
a(I139
I141
tp4517
a(I138
I141
tp4518
a(I142
I135
tp4519
a(I144
I132
tp4520
a(I144
I130
tp4521
a(I146
I130
tp4522
a(I149
I126
tp4523
a(I147
I126
tp4524
a(I147
I127
tp4525
a(I149
I124
tp4526
a(I149
I123
tp4527
a(I149
I125
tp4528
a(I150
I115
tp4529
a(I149
I109
tp4530
a(I151
I108
tp4531
a(I153
I108
tp4532
a(I154
I108
tp4533
a(I153
I109
tp4534
a(I154
I109
tp4535
a(I155
I109
tp4536
a(I156
I109
tp4537
a(I157
I109
tp4538
a(I153
I104
tp4539
a(I152
I101
tp4540
a(I151
I101
tp4541
a(I151
I102
tp4542
a(I150
I102
tp4543
a(I150
I101
tp4544
a(I149
I101
tp4545
a(I148
I101
tp4546
a(I147
I101
tp4547
a(I146
I101
tp4548
a(I145
I101
tp4549
a(I144
I101
tp4550
a(I143
I101
tp4551
a(I142
I101
tp4552
a(I141
I101
tp4553
a(I141
I102
tp4554
a(I140
I102
tp4555
a(I140
I101
tp4556
a(I139
I102
tp4557
a(I139
I101
tp4558
a(I138
I101
tp4559
a(I137
I101
tp4560
a(I136
I101
tp4561
a(I137
I102
tp4562
a(I136
I102
tp4563
a(I135
I102
tp4564
a(I134
I102
tp4565
a(I135
I101
tp4566
a(I134
I101
tp4567
a(I133
I101
tp4568
a(I133
I102
tp4569
a(I132
I102
tp4570
a(I132
I101
tp4571
a(I131
I101
tp4572
a(I130
I101
tp4573
a(I129
I101
tp4574
a(I128
I101
tp4575
a(I127
I101
tp4576
a(I126
I101
tp4577
a(I125
I101
tp4578
a(I124
I101
tp4579
a(I123
I101
tp4580
a(I122
I101
tp4581
a(I121
I101
tp4582
a(I120
I101
tp4583
a(I119
I101
tp4584
a(I118
I101
tp4585
a(I119
I100
tp4586
a(I118
I100
tp4587
a(I117
I100
tp4588
a(I116
I100
tp4589
a(I115
I100
tp4590
a(I114
I100
tp4591
a(I113
I100
tp4592
a(I112
I100
tp4593
a(I111
I100
tp4594
a(I111
I99
tp4595
a(I112
I99
tp4596
a(I110
I99
tp4597
a(I110
I100
tp4598
a(I109
I100
tp4599
a(I109
I99
tp4600
a(I108
I99
tp4601
a(I107
I99
tp4602
a(I106
I99
tp4603
a(I105
I99
tp4604
a(I104
I99
tp4605
a(I104
I98
tp4606
a(I103
I98
tp4607
a(I102
I98
tp4608
a(I101
I98
tp4609
a(I105
I98
tp4610
a(I117
I101
tp4611
a(I116
I101
tp4612
a(I115
I101
tp4613
a(I126
I102
tp4614
a(I125
I102
tp4615
a(I127
I102
tp4616
a(I129
I102
tp4617
a(I130
I102
tp4618
a(I128
I102
tp4619
a(I131
I102
tp4620
a(I138
I102
tp4621
a(I144
I100
tp4622
a(I146
I100
tp4623
a(I149
I100
tp4624
a(I150
I100
tp4625
a(I150
I99
tp4626
a(I150
I98
tp4627
a(I150
I97
tp4628
a(I149
I98
tp4629
a(I148
I98
tp4630
a(I147
I98
tp4631
a(I146
I98
tp4632
a(I146
I97
tp4633
a(I147
I99
tp4634
a(I146
I99
tp4635
a(I145
I99
tp4636
a(I145
I100
tp4637
a(I145
I98
tp4638
a(I145
I97
tp4639
a(I144
I98
tp4640
a(I144
I97
tp4641
a(I144
I96
tp4642
a(I143
I97
tp4643
a(I143
I96
tp4644
a(I143
I95
tp4645
a(I144
I95
tp4646
a(I144
I94
tp4647
a(I144
I93
tp4648
a(I143
I93
tp4649
a(I145
I93
tp4650
a(I145
I92
tp4651
a(I144
I92
tp4652
a(I144
I91
tp4653
a(I145
I91
tp4654
a(I146
I91
tp4655
a(I145
I90
tp4656
a(I145
I89
tp4657
a(I146
I90
tp4658
a(I147
I90
tp4659
a(I147
I89
tp4660
a(I146
I89
tp4661
a(I148
I89
tp4662
a(I147
I88
tp4663
a(I146
I88
tp4664
a(I145
I88
tp4665
a(I144
I88
tp4666
a(I143
I88
tp4667
a(I142
I88
tp4668
a(I142
I89
tp4669
a(I141
I89
tp4670
a(I141
I88
tp4671
a(I141
I87
tp4672
a(I140
I88
tp4673
a(I140
I87
tp4674
a(I139
I87
tp4675
a(I139
I86
tp4676
a(I139
I85
tp4677
a(I140
I85
tp4678
a(I140
I84
tp4679
a(I139
I84
tp4680
a(I140
I83
tp4681
a(I141
I84
tp4682
a(I142
I84
tp4683
a(I142
I83
tp4684
a(I143
I83
tp4685
a(I143
I82
tp4686
a(I144
I82
tp4687
a(I144
I83
tp4688
a(I144
I81
tp4689
a(I145
I82
tp4690
a(I145
I81
tp4691
a(I146
I81
tp4692
a(I147
I81
tp4693
a(I147
I82
tp4694
a(I148
I82
tp4695
a(I148
I83
tp4696
a(I149
I82
tp4697
a(I148
I81
tp4698
a(I145
I80
tp4699
a(I145
I79
tp4700
a(I144
I79
tp4701
a(I144
I78
tp4702
a(I144
I77
tp4703
a(I144
I76
tp4704
a(I144
I75
tp4705
a(I143
I75
tp4706
a(I145
I76
tp4707
a(I145
I75
tp4708
a(I146
I75
tp4709
a(I146
I76
tp4710
a(I147
I76
tp4711
a(I143
I78
tp4712
a(I143
I79
tp4713
a(I143
I77
tp4714
a(I143
I76
tp4715
a(I142
I77
tp4716
a(I142
I76
tp4717
a(I144
I80
tp4718
a(I146
I80
tp4719
a(I146
I82
tp4720
a(I145
I83
tp4721
a(I146
I83
tp4722
a(I147
I83
tp4723
a(I141
I83
tp4724
a(I140
I86
tp4725
a(I144
I89
tp4726
a(I143
I89
tp4727
a(I144
I90
tp4728
a(I143
I94
tp4729
a(I149
I97
tp4730
a(I149
I96
tp4731
a(I150
I96
tp4732
a(I151
I96
tp4733
a(I152
I96
tp4734
a(I151
I95
tp4735
a(I152
I95
tp4736
a(I150
I95
tp4737
a(I149
I95
tp4738
a(I148
I96
tp4739
a(I147
I96
tp4740
a(I148
I97
tp4741
a(I147
I97
tp4742
a(I149
I99
tp4743
a(I148
I100
tp4744
a(I147
I100
tp4745
a(I148
I99
tp4746
a(I155
I102
tp4747
a(I155
I103
tp4748
a(I154
I103
tp4749
a(I154
I104
tp4750
a(I156
I100
tp4751
a(I155
I100
tp4752
a(I158
I102
tp4753
a(I157
I101
tp4754
a(I158
I101
tp4755
a(I158
I100
tp4756
a(I159
I100
tp4757
a(I158
I99
tp4758
a(I159
I99
tp4759
a(I160
I99
tp4760
a(I161
I99
tp4761
a(I161
I100
tp4762
a(I162
I100
tp4763
a(I162
I101
tp4764
a(I162
I102
tp4765
a(I160
I100
tp4766
a(I161
I101
tp4767
a(I162
I99
tp4768
a(I163
I99
tp4769
a(I163
I100
tp4770
a(I163
I101
tp4771
a(I163
I102
tp4772
a(I161
I98
tp4773
a(I160
I98
tp4774
a(I160
I97
tp4775
a(I160
I96
tp4776
a(I162
I98
tp4777
a(I163
I98
tp4778
a(I162
I97
tp4779
a(I163
I97
tp4780
a(I164
I97
tp4781
a(I163
I96
tp4782
a(I164
I96
tp4783
a(I163
I95
tp4784
a(I164
I95
tp4785
a(I165
I95
tp4786
a(I165
I94
tp4787
a(I165
I93
tp4788
a(I166
I94
tp4789
a(I166
I93
tp4790
a(I166
I92
tp4791
a(I167
I93
tp4792
a(I168
I93
tp4793
a(I168
I92
tp4794
a(I167
I92
tp4795
a(I167
I91
tp4796
a(I168
I91
tp4797
a(I168
I90
tp4798
a(I169
I90
tp4799
a(I170
I90
tp4800
a(I171
I90
tp4801
a(I171
I89
tp4802
a(I172
I89
tp4803
a(I172
I88
tp4804
a(I171
I88
tp4805
a(I173
I88
tp4806
a(I170
I89
tp4807
a(I170
I91
tp4808
a(I169
I91
tp4809
a(I169
I92
tp4810
a(I167
I94
tp4811
a(I166
I95
tp4812
a(I165
I96
tp4813
a(I164
I94
tp4814
a(I162
I96
tp4815
a(I161
I97
tp4816
a(I161
I96
tp4817
a(I161
I95
tp4818
a(I161
I94
tp4819
a(I160
I94
tp4820
a(I160
I95
tp4821
a(I160
I93
tp4822
a(I161
I93
tp4823
a(I161
I92
tp4824
a(I160
I92
tp4825
a(I159
I92
tp4826
a(I159
I93
tp4827
a(I161
I91
tp4828
a(I160
I91
tp4829
a(I159
I91
tp4830
a(I159
I90
tp4831
a(I158
I90
tp4832
a(I157
I90
tp4833
a(I156
I90
tp4834
a(I155
I90
tp4835
a(I155
I89
tp4836
a(I154
I89
tp4837
a(I153
I89
tp4838
a(I153
I88
tp4839
a(I152
I88
tp4840
a(I152
I87
tp4841
a(I151
I87
tp4842
a(I151
I86
tp4843
a(I150
I86
tp4844
a(I151
I85
tp4845
a(I152
I85
tp4846
a(I150
I85
tp4847
a(I158
I91
tp4848
a(I160
I90
tp4849
a(I161
I90
tp4850
a(I161
I89
tp4851
a(I160
I89
tp4852
a(I160
I88
tp4853
a(I160
I87
tp4854
a(I160
I86
tp4855
a(I160
I85
tp4856
a(I160
I84
tp4857
a(I160
I83
tp4858
a(I160
I82
tp4859
a(I161
I82
tp4860
a(I161
I81
tp4861
a(I161
I80
tp4862
a(I161
I79
tp4863
a(I162
I80
tp4864
a(I162
I79
tp4865
a(I162
I78
tp4866
a(I163
I79
tp4867
a(I163
I78
tp4868
a(I164
I78
tp4869
a(I164
I79
tp4870
a(I164
I77
tp4871
a(I165
I77
tp4872
a(I165
I76
tp4873
a(I164
I76
tp4874
a(I164
I75
tp4875
a(I164
I74
tp4876
a(I164
I73
tp4877
a(I165
I74
tp4878
a(I165
I73
tp4879
a(I165
I72
tp4880
a(I165
I71
tp4881
a(I165
I70
tp4882
a(I164
I70
tp4883
a(I164
I71
tp4884
a(I164
I69
tp4885
a(I163
I69
tp4886
a(I163
I70
tp4887
a(I163
I68
tp4888
a(I163
I67
tp4889
a(I163
I66
tp4890
a(I163
I65
tp4891
a(I162
I65
tp4892
a(I162
I64
tp4893
a(I161
I65
tp4894
a(I161
I64
tp4895
a(I161
I63
tp4896
a(I160
I64
tp4897
a(I160
I63
tp4898
a(I159
I63
tp4899
a(I159
I62
tp4900
a(I159
I61
tp4901
a(I158
I62
tp4902
a(I157
I62
tp4903
a(I157
I61
tp4904
a(I158
I61
tp4905
a(I156
I61
tp4906
a(I155
I61
tp4907
a(I160
I62
tp4908
a(I161
I62
tp4909
a(I162
I62
tp4910
a(I162
I61
tp4911
a(I162
I63
tp4912
a(I160
I61
tp4913
a(I161
I61
tp4914
a(I160
I60
tp4915
a(I159
I60
tp4916
a(I160
I59
tp4917
a(I161
I59
tp4918
a(I161
I60
tp4919
a(I162
I60
tp4920
a(I162
I59
tp4921
a(I160
I58
tp4922
a(I161
I58
tp4923
a(I162
I58
tp4924
a(I160
I57
tp4925
a(I159
I57
tp4926
a(I158
I57
tp4927
a(I157
I57
tp4928
a(I157
I56
tp4929
a(I156
I57
tp4930
a(I155
I57
tp4931
a(I155
I56
tp4932
a(I154
I56
tp4933
a(I153
I56
tp4934
a(I152
I56
tp4935
a(I152
I57
tp4936
a(I153
I57
tp4937
a(I151
I57
tp4938
a(I151
I58
tp4939
a(I151
I56
tp4940
a(I150
I57
tp4941
a(I150
I58
tp4942
a(I150
I59
tp4943
a(I150
I60
tp4944
a(I151
I60
tp4945
a(I151
I61
tp4946
a(I152
I61
tp4947
a(I153
I61
tp4948
a(I153
I62
tp4949
a(I153
I63
tp4950
a(I153
I64
tp4951
a(I153
I65
tp4952
a(I154
I65
tp4953
a(I154
I64
tp4954
a(I153
I66
tp4955
a(I153
I67
tp4956
a(I152
I66
tp4957
a(I152
I67
tp4958
a(I151
I67
tp4959
a(I152
I68
tp4960
a(I152
I69
tp4961
a(I151
I69
tp4962
a(I150
I69
tp4963
a(I151
I70
tp4964
a(I151
I68
tp4965
a(I150
I68
tp4966
a(I149
I68
tp4967
a(I148
I68
tp4968
a(I148
I69
tp4969
a(I148
I70
tp4970
a(I147
I69
tp4971
a(I147
I70
tp4972
a(I147
I71
tp4973
a(I148
I71
tp4974
a(I148
I72
tp4975
a(I148
I73
tp4976
a(I149
I72
tp4977
a(I149
I71
tp4978
a(I149
I73
tp4979
a(I149
I74
tp4980
a(I150
I74
tp4981
a(I150
I75
tp4982
a(I150
I76
tp4983
a(I151
I76
tp4984
a(I151
I77
tp4985
a(I151
I78
tp4986
a(I150
I77
tp4987
a(I150
I78
tp4988
a(I149
I78
tp4989
a(I149
I77
tp4990
a(I148
I77
tp4991
a(I147
I77
tp4992
a(I148
I76
tp4993
a(I149
I75
tp4994
a(I149
I76
tp4995
a(I147
I68
tp4996
a(I148
I67
tp4997
a(I147
I67
tp4998
a(I149
I69
tp4999
a(I152
I70
tp5000
a(I153
I70
tp5001
a(I153
I71
tp5002
a(I153
I72
tp5003
a(I154
I72
tp5004
a(I154
I71
tp5005
a(I155
I72
tp5006
a(I154
I73
tp5007
a(I152
I71
tp5008
a(I153
I69
tp5009
a(I153
I68
tp5010
a(I154
I61
tp5011
a(I154
I62
tp5012
a(I155
I62
tp5013
a(I154
I63
tp5014
a(I150
I61
tp5015
a(I149
I60
tp5016
a(I149
I59
tp5017
a(I148
I59
tp5018
a(I147
I59
tp5019
a(I147
I58
tp5020
a(I146
I59
tp5021
a(I146
I58
tp5022
a(I145
I59
tp5023
a(I144
I59
tp5024
a(I145
I60
tp5025
a(I144
I60
tp5026
a(I144
I61
tp5027
a(I143
I61
tp5028
a(I143
I60
tp5029
a(I142
I60
tp5030
a(I143
I59
tp5031
a(I146
I60
tp5032
a(I146
I61
tp5033
a(I145
I61
tp5034
a(I147
I60
tp5035
a(I147
I61
tp5036
a(I148
I58
tp5037
a(I149
I58
tp5038
a(I148
I60
tp5039
a(I148
I61
tp5040
a(I149
I61
tp5041
a(I152
I58
tp5042
a(I152
I55
tp5043
a(I152
I54
tp5044
a(I153
I54
tp5045
a(I153
I55
tp5046
a(I151
I54
tp5047
a(I151
I55
tp5048
a(I151
I53
tp5049
a(I151
I52
tp5050
a(I151
I51
tp5051
a(I152
I53
tp5052
a(I153
I53
tp5053
a(I154
I53
tp5054
a(I155
I53
tp5055
a(I153
I52
tp5056
a(I152
I52
tp5057
a(I154
I57
tp5058
a(I160
I56
tp5059
a(I160
I55
tp5060
a(I160
I54
tp5061
a(I160
I53
tp5062
a(I161
I54
tp5063
a(I162
I54
tp5064
a(I162
I53
tp5065
a(I162
I52
tp5066
a(I162
I51
tp5067
a(I163
I51
tp5068
a(I162
I50
tp5069
a(I163
I50
tp5070
a(I162
I49
tp5071
a(I161
I49
tp5072
a(I161
I48
tp5073
a(I161
I50
tp5074
a(I163
I49
tp5075
a(I163
I48
tp5076
a(I164
I48
tp5077
a(I164
I47
tp5078
a(I165
I47
tp5079
a(I164
I46
tp5080
a(I165
I46
tp5081
a(I166
I46
tp5082
a(I167
I46
tp5083
a(I167
I47
tp5084
a(I168
I47
tp5085
a(I169
I47
tp5086
a(I167
I48
tp5087
a(I166
I48
tp5088
a(I166
I49
tp5089
a(I168
I48
tp5090
a(I168
I49
tp5091
a(I169
I49
tp5092
a(I170
I49
tp5093
a(I170
I48
tp5094
a(I169
I48
tp5095
a(I168
I50
tp5096
a(I169
I50
tp5097
a(I170
I50
tp5098
a(I171
I50
tp5099
a(I171
I51
tp5100
a(I171
I52
tp5101
a(I171
I49
tp5102
a(I169
I51
tp5103
a(I170
I51
tp5104
a(I167
I49
tp5105
a(I166
I45
tp5106
a(I167
I45
tp5107
a(I166
I44
tp5108
a(I167
I44
tp5109
a(I168
I44
tp5110
a(I169
I44
tp5111
a(I170
I44
tp5112
a(I168
I45
tp5113
a(I168
I46
tp5114
a(I169
I46
tp5115
a(I168
I43
tp5116
a(I167
I43
tp5117
a(I166
I43
tp5118
a(I169
I43
tp5119
a(I170
I43
tp5120
a(I171
I43
tp5121
a(I171
I44
tp5122
a(I171
I45
tp5123
a(I171
I42
tp5124
a(I172
I43
tp5125
a(I172
I44
tp5126
a(I172
I45
tp5127
a(I172
I46
tp5128
a(I173
I46
tp5129
a(I173
I47
tp5130
a(I174
I47
tp5131
a(I174
I48
tp5132
a(I175
I48
tp5133
a(I175
I49
tp5134
a(I175
I50
tp5135
a(I176
I50
tp5136
a(I176
I51
tp5137
a(I177
I51
tp5138
a(I177
I52
tp5139
a(I173
I44
tp5140
a(I174
I44
tp5141
a(I175
I44
tp5142
a(I176
I44
tp5143
a(I174
I43
tp5144
a(I174
I42
tp5145
a(I175
I43
tp5146
a(I176
I43
tp5147
a(I177
I43
tp5148
a(I177
I44
tp5149
a(I178
I44
tp5150
a(I178
I43
tp5151
a(I179
I43
tp5152
a(I178
I45
tp5153
a(I179
I45
tp5154
a(I180
I45
tp5155
a(I180
I44
tp5156
a(I181
I44
tp5157
a(I181
I45
tp5158
a(I182
I45
tp5159
a(I181
I46
tp5160
a(I182
I46
tp5161
a(I183
I46
tp5162
a(I183
I47
tp5163
a(I182
I47
tp5164
a(I184
I47
tp5165
a(I183
I48
tp5166
a(I184
I48
tp5167
a(I184
I49
tp5168
a(I185
I49
tp5169
a(I185
I50
tp5170
a(I186
I50
tp5171
a(I186
I51
tp5172
a(I186
I52
tp5173
a(I187
I52
tp5174
a(I187
I51
tp5175
a(I188
I52
tp5176
a(I187
I53
tp5177
a(I188
I53
tp5178
a(I188
I54
tp5179
a(I189
I54
tp5180
a(I189
I55
tp5181
a(I189
I56
tp5182
a(I190
I56
tp5183
a(I190
I55
tp5184
a(I190
I57
tp5185
a(I189
I57
tp5186
a(I189
I58
tp5187
a(I190
I58
tp5188
a(I190
I59
tp5189
a(I191
I58
tp5190
a(I191
I57
tp5191
a(I192
I58
tp5192
a(I193
I58
tp5193
a(I194
I58
tp5194
a(I195
I58
tp5195
a(I195
I59
tp5196
a(I194
I57
tp5197
a(I194
I56
tp5198
a(I195
I57
tp5199
a(I195
I56
tp5200
a(I195
I55
tp5201
a(I194
I55
tp5202
a(I194
I54
tp5203
a(I195
I54
tp5204
a(I194
I53
tp5205
a(I194
I52
tp5206
a(I195
I52
tp5207
a(I195
I53
tp5208
a(I196
I53
tp5209
a(I196
I54
tp5210
a(I196
I55
tp5211
a(I196
I52
tp5212
a(I197
I53
tp5213
a(I197
I52
tp5214
a(I197
I51
tp5215
a(I196
I51
tp5216
a(I197
I50
tp5217
a(I198
I50
tp5218
a(I198
I49
tp5219
a(I199
I50
tp5220
a(I199
I49
tp5221
a(I199
I48
tp5222
a(I200
I48
tp5223
a(I200
I47
tp5224
a(I201
I48
tp5225
a(I202
I48
tp5226
a(I201
I49
tp5227
a(I201
I47
tp5228
a(I202
I47
tp5229
a(I203
I47
tp5230
a(I203
I48
tp5231
a(I204
I47
tp5232
a(I205
I47
tp5233
a(I206
I47
tp5234
a(I206
I46
tp5235
a(I207
I46
tp5236
a(I207
I45
tp5237
a(I207
I44
tp5238
a(I208
I46
tp5239
a(I208
I45
tp5240
a(I208
I44
tp5241
a(I208
I43
tp5242
a(I207
I43
tp5243
a(I208
I42
tp5244
a(I208
I41
tp5245
a(I207
I41
tp5246
a(I207
I42
tp5247
a(I208
I40
tp5248
a(I208
I39
tp5249
a(I209
I39
tp5250
a(I210
I39
tp5251
a(I209
I38
tp5252
a(I210
I38
tp5253
a(I209
I37
tp5254
a(I210
I37
tp5255
a(I211
I37
tp5256
a(I211
I36
tp5257
a(I212
I36
tp5258
a(I210
I36
tp5259
a(I211
I35
tp5260
a(I212
I35
tp5261
a(I213
I35
tp5262
a(I213
I34
tp5263
a(I212
I34
tp5264
a(I214
I34
tp5265
a(I214
I33
tp5266
a(I215
I33
tp5267
a(I216
I33
tp5268
a(I216
I32
tp5269
a(I217
I32
tp5270
a(I217
I31
tp5271
a(I218
I31
tp5272
a(I219
I31
tp5273
a(I219
I30
tp5274
a(I220
I30
tp5275
a(I221
I30
tp5276
a(I219
I29
tp5277
a(I220
I29
tp5278
a(I221
I29
tp5279
a(I222
I29
tp5280
a(I223
I29
tp5281
a(I222
I28
tp5282
a(I223
I28
tp5283
a(I224
I28
tp5284
a(I225
I28
tp5285
a(I225
I27
tp5286
a(I226
I27
tp5287
a(I227
I27
tp5288
a(I228
I27
tp5289
a(I228
I26
tp5290
a(I229
I26
tp5291
a(I230
I26
tp5292
a(I231
I26
tp5293
a(I232
I26
tp5294
a(I232
I25
tp5295
a(I233
I25
tp5296
a(I234
I25
tp5297
a(I235
I25
tp5298
a(I236
I25
tp5299
a(I237
I25
tp5300
a(I236
I24
tp5301
a(I237
I24
tp5302
a(I238
I24
tp5303
a(I239
I24
tp5304
a(I240
I24
tp5305
a(I241
I24
tp5306
a(I240
I23
tp5307
a(I241
I23
tp5308
a(I242
I23
tp5309
a(I242
I24
tp5310
a(I243
I23
tp5311
a(I244
I23
tp5312
a(I243
I22
tp5313
a(I244
I22
tp5314
a(I245
I22
tp5315
a(I245
I21
tp5316
a(I245
I23
tp5317
a(I246
I22
tp5318
a(I247
I22
tp5319
a(I247
I21
tp5320
a(I248
I22
tp5321
a(I248
I21
tp5322
a(I249
I21
tp5323
a(I250
I21
tp5324
a(I249
I20
tp5325
a(I250
I20
tp5326
a(I250
I19
tp5327
a(I251
I20
tp5328
a(I252
I20
tp5329
a(I252
I19
tp5330
a(I253
I19
tp5331
a(I254
I19
tp5332
a(I252
I18
tp5333
a(I253
I18
tp5334
a(I254
I18
tp5335
a(I251
I19
tp5336
a(I248
I20
tp5337
a(I246
I21
tp5338
a(I217
I30
tp5339
a(I218
I30
tp5340
a(I216
I31
tp5341
a(I214
I32
tp5342
a(I215
I32
tp5343
a(I213
I33
tp5344
a(I209
I40
tp5345
a(I209
I41
tp5346
a(I208
I47
tp5347
a(I207
I47
tp5348
a(I208
I48
tp5349
a(I209
I48
tp5350
a(I208
I49
tp5351
a(I209
I49
tp5352
a(I208
I50
tp5353
a(I209
I50
tp5354
a(I209
I51
tp5355
a(I210
I51
tp5356
a(I210
I52
tp5357
a(I211
I52
tp5358
a(I210
I53
tp5359
a(I211
I53
tp5360
a(I211
I54
tp5361
a(I212
I54
tp5362
a(I212
I55
tp5363
a(I212
I56
tp5364
a(I213
I56
tp5365
a(I213
I57
tp5366
a(I214
I57
tp5367
a(I213
I58
tp5368
a(I214
I58
tp5369
a(I214
I59
tp5370
a(I215
I59
tp5371
a(I215
I60
tp5372
a(I216
I60
tp5373
a(I217
I60
tp5374
a(I218
I60
tp5375
a(I219
I60
tp5376
a(I220
I60
tp5377
a(I221
I60
tp5378
a(I222
I60
tp5379
a(I223
I60
tp5380
a(I224
I60
tp5381
a(I225
I60
tp5382
a(I226
I60
tp5383
a(I226
I59
tp5384
a(I227
I60
tp5385
a(I225
I61
tp5386
a(I224
I61
tp5387
a(I226
I61
tp5388
a(I226
I62
tp5389
a(I227
I62
tp5390
a(I228
I62
tp5391
a(I229
I62
tp5392
a(I230
I62
tp5393
a(I229
I63
tp5394
a(I230
I63
tp5395
a(I231
I64
tp5396
a(I228
I63
tp5397
a(I228
I61
tp5398
a(I229
I61
tp5399
a(I228
I60
tp5400
a(I229
I60
tp5401
a(I228
I59
tp5402
a(I227
I59
tp5403
a(I227
I58
tp5404
a(I226
I58
tp5405
a(I227
I57
tp5406
a(I227
I56
tp5407
a(I228
I56
tp5408
a(I229
I56
tp5409
a(I230
I56
tp5410
a(I230
I57
tp5411
a(I231
I57
tp5412
a(I231
I58
tp5413
a(I232
I57
tp5414
a(I232
I58
tp5415
a(I232
I59
tp5416
a(I233
I58
tp5417
a(I233
I59
tp5418
a(I234
I59
tp5419
a(I235
I59
tp5420
a(I236
I59
tp5421
a(I235
I60
tp5422
a(I235
I61
tp5423
a(I236
I61
tp5424
a(I236
I60
tp5425
a(I237
I61
tp5426
a(I237
I62
tp5427
a(I238
I63
tp5428
a(I234
I60
tp5429
a(I235
I58
tp5430
a(I235
I57
tp5431
a(I235
I56
tp5432
a(I231
I56
tp5433
a(I229
I55
tp5434
a(I228
I55
tp5435
a(I230
I55
tp5436
a(I231
I55
tp5437
a(I232
I55
tp5438
a(I233
I55
tp5439
a(I234
I55
tp5440
a(I235
I55
tp5441
a(I236
I55
tp5442
a(I237
I55
tp5443
a(I238
I55
tp5444
a(I239
I56
tp5445
a(I236
I54
tp5446
a(I234
I56
tp5447
a(I233
I54
tp5448
a(I232
I54
tp5449
a(I232
I53
tp5450
a(I232
I52
tp5451
a(I231
I53
tp5452
a(I231
I52
tp5453
a(I231
I51
tp5454
a(I231
I50
tp5455
a(I230
I50
tp5456
a(I229
I49
tp5457
a(I228
I48
tp5458
a(I227
I47
tp5459
a(I226
I46
tp5460
a(I226
I45
tp5461
a(I225
I44
tp5462
a(I224
I43
tp5463
a(I234
I54
tp5464
a(I233
I53
tp5465
a(I234
I53
tp5466
a(I235
I53
tp5467
a(I235
I54
tp5468
a(I234
I52
tp5469
a(I234
I51
tp5470
a(I233
I51
tp5471
a(I232
I51
tp5472
a(I232
I50
tp5473
a(I234
I50
tp5474
a(I233
I50
tp5475
a(I235
I50
tp5476
a(I235
I51
tp5477
a(I236
I51
tp5478
a(I237
I51
tp5479
a(I237
I50
tp5480
a(I238
I50
tp5481
a(I239
I50
tp5482
a(I239
I49
tp5483
a(I240
I49
tp5484
a(I241
I49
tp5485
a(I242
I49
tp5486
a(I243
I49
tp5487
a(I242
I48
tp5488
a(I243
I48
tp5489
a(I244
I48
tp5490
a(I245
I48
tp5491
a(I246
I48
tp5492
a(I246
I47
tp5493
a(I246
I46
tp5494
a(I246
I45
tp5495
a(I245
I46
tp5496
a(I247
I46
tp5497
a(I247
I47
tp5498
a(I247
I45
tp5499
a(I248
I45
tp5500
a(I248
I44
tp5501
a(I249
I44
tp5502
a(I249
I45
tp5503
a(I249
I43
tp5504
a(I247
I44
tp5505
a(I248
I43
tp5506
a(I247
I43
tp5507
a(I248
I42
tp5508
a(I249
I42
tp5509
a(I250
I42
tp5510
a(I250
I43
tp5511
a(I249
I41
tp5512
a(I250
I41
tp5513
a(I251
I41
tp5514
a(I249
I40
tp5515
a(I250
I40
tp5516
a(I251
I40
tp5517
a(I250
I39
tp5518
a(I251
I39
tp5519
a(I252
I39
tp5520
a(I252
I38
tp5521
a(I251
I38
tp5522
a(I252
I37
tp5523
a(I251
I37
tp5524
a(I252
I36
tp5525
a(I252
I35
tp5526
a(I253
I35
tp5527
a(I253
I34
tp5528
a(I254
I35
tp5529
a(I254
I34
tp5530
a(I254
I33
tp5531
a(I255
I33
tp5532
a(I254
I32
tp5533
a(I255
I32
tp5534
a(I255
I31
tp5535
a(I256
I31
tp5536
a(I256
I30
tp5537
a(I255
I30
tp5538
a(I257
I30
tp5539
a(I256
I29
tp5540
a(I257
I29
tp5541
a(I257
I28
tp5542
a(I258
I28
tp5543
a(I257
I27
tp5544
a(I258
I27
tp5545
a(I258
I26
tp5546
a(I259
I26
tp5547
a(I259
I25
tp5548
a(I258
I25
tp5549
a(I259
I24
tp5550
a(I260
I24
tp5551
a(I260
I25
tp5552
a(I260
I23
tp5553
a(I261
I23
tp5554
a(I261
I22
tp5555
a(I261
I21
tp5556
a(I262
I22
tp5557
a(I262
I21
tp5558
a(I263
I21
tp5559
a(I264
I21
tp5560
a(I264
I22
tp5561
a(I265
I22
tp5562
a(I265
I23
tp5563
a(I264
I23
tp5564
a(I264
I24
tp5565
a(I264
I25
tp5566
a(I263
I25
tp5567
a(I263
I26
tp5568
a(I263
I27
tp5569
a(I262
I27
tp5570
a(I262
I28
tp5571
a(I262
I29
tp5572
a(I262
I30
tp5573
a(I261
I30
tp5574
a(I261
I31
tp5575
a(I261
I32
tp5576
a(I261
I33
tp5577
a(I260
I33
tp5578
a(I260
I34
tp5579
a(I260
I35
tp5580
a(I260
I36
tp5581
a(I259
I36
tp5582
a(I259
I37
tp5583
a(I259
I38
tp5584
a(I258
I38
tp5585
a(I258
I39
tp5586
a(I259
I39
tp5587
a(I258
I40
tp5588
a(I257
I40
tp5589
a(I258
I41
tp5590
a(I257
I41
tp5591
a(I257
I42
tp5592
a(I257
I43
tp5593
a(I257
I44
tp5594
a(I256
I44
tp5595
a(I256
I45
tp5596
a(I255
I45
tp5597
a(I255
I46
tp5598
a(I256
I46
tp5599
a(I255
I47
tp5600
a(I255
I48
tp5601
a(I254
I48
tp5602
a(I254
I49
tp5603
a(I254
I50
tp5604
a(I253
I51
tp5605
a(I253
I52
tp5606
a(I252
I52
tp5607
a(I252
I53
tp5608
a(I252
I54
tp5609
a(I251
I54
tp5610
a(I251
I55
tp5611
a(I251
I56
tp5612
a(I250
I56
tp5613
a(I250
I57
tp5614
a(I249
I57
tp5615
a(I250
I58
tp5616
a(I249
I58
tp5617
a(I249
I59
tp5618
a(I249
I60
tp5619
a(I248
I60
tp5620
a(I248
I59
tp5621
a(I247
I60
tp5622
a(I247
I61
tp5623
a(I249
I61
tp5624
a(I249
I62
tp5625
a(I248
I61
tp5626
a(I248
I62
tp5627
a(I247
I62
tp5628
a(I246
I62
tp5629
a(I245
I62
tp5630
a(I244
I62
tp5631
a(I243
I62
tp5632
a(I243
I63
tp5633
a(I244
I63
tp5634
a(I245
I63
tp5635
a(I244
I64
tp5636
a(I245
I64
tp5637
a(I243
I61
tp5638
a(I242
I61
tp5639
a(I242
I60
tp5640
a(I241
I60
tp5641
a(I241
I59
tp5642
a(I240
I59
tp5643
a(I241
I58
tp5644
a(I240
I58
tp5645
a(I240
I57
tp5646
a(I247
I63
tp5647
a(I246
I63
tp5648
a(I248
I63
tp5649
a(I249
I63
tp5650
a(I247
I64
tp5651
a(I248
I64
tp5652
a(I247
I65
tp5653
a(I248
I65
tp5654
a(I247
I66
tp5655
a(I248
I66
tp5656
a(I248
I67
tp5657
a(I247
I67
tp5658
a(I247
I68
tp5659
a(I247
I69
tp5660
a(I248
I69
tp5661
a(I248
I68
tp5662
a(I248
I70
tp5663
a(I247
I70
tp5664
a(I248
I71
tp5665
a(I246
I68
tp5666
a(I246
I67
tp5667
a(I249
I66
tp5668
a(I249
I65
tp5669
a(I249
I64
tp5670
a(I250
I64
tp5671
a(I251
I64
tp5672
a(I251
I65
tp5673
a(I250
I63
tp5674
a(I246
I65
tp5675
a(I246
I64
tp5676
a(I245
I65
tp5677
a(I246
I66
tp5678
a(I245
I66
tp5679
a(I256
I43
tp5680
a(I259
I35
tp5681
a(I263
I24
tp5682
a(I262
I20
tp5683
a(I261
I20
tp5684
a(I263
I20
tp5685
a(I262
I19
tp5686
a(I263
I19
tp5687
a(I263
I18
tp5688
a(I264
I19
tp5689
a(I264
I18
tp5690
a(I265
I18
tp5691
a(I266
I18
tp5692
a(I264
I17
tp5693
a(I263
I17
tp5694
a(I263
I16
tp5695
a(I265
I17
tp5696
a(I265
I16
tp5697
a(I265
I15
tp5698
a(I265
I14
tp5699
a(I265
I13
tp5700
a(I266
I13
tp5701
a(I265
I12
tp5702
a(I264
I12
tp5703
a(I265
I11
tp5704
a(I264
I11
tp5705
a(I264
I10
tp5706
a(I265
I10
tp5707
a(I264
I9
tp5708
a(I265
I9
tp5709
a(I265
I8
tp5710
a(I266
I8
tp5711
a(I267
I8
tp5712
a(I267
I7
tp5713
a(I267
I6
tp5714
a(I268
I7
tp5715
a(I266
I9
tp5716
a(I267
I9
tp5717
a(I268
I9
tp5718
a(I268
I8
tp5719
a(I269
I9
tp5720
a(I269
I8
tp5721
a(I269
I7
tp5722
a(I268
I10
tp5723
a(I269
I10
tp5724
a(I269
I11
tp5725
a(I270
I11
tp5726
a(I270
I12
tp5727
a(I269
I12
tp5728
a(I270
I10
tp5729
a(I270
I9
tp5730
a(I271
I9
tp5731
a(I270
I8
tp5732
a(I271
I8
tp5733
a(I270
I7
tp5734
a(I271
I7
tp5735
a(I270
I6
tp5736
a(I269
I6
tp5737
a(I269
I5
tp5738
a(I268
I6
tp5739
a(I268
I5
tp5740
a(I271
I6
tp5741
a(I271
I5
tp5742
a(I272
I6
tp5743
a(I272
I5
tp5744
a(I270
I5
tp5745
a(I270
I4
tp5746
a(I269
I4
tp5747
a(I271
I4
tp5748
a(I268
I11
tp5749
a(I268
I12
tp5750
a(I268
I13
tp5751
a(I269
I13
tp5752
a(I269
I14
tp5753
a(I267
I12
tp5754
a(I266
I10
tp5755
a(I266
I11
tp5756
a(I267
I11
tp5757
a(I267
I10
tp5758
a(I263
I10
tp5759
a(I262
I10
tp5760
a(I262
I11
tp5761
a(I262
I12
tp5762
a(I263
I12
tp5763
a(I262
I13
tp5764
a(I263
I13
tp5765
a(I262
I14
tp5766
a(I261
I13
tp5767
a(I260
I13
tp5768
a(I260
I12
tp5769
a(I259
I13
tp5770
a(I259
I14
tp5771
a(I260
I14
tp5772
a(I261
I14
tp5773
a(I259
I15
tp5774
a(I260
I15
tp5775
a(I258
I15
tp5776
a(I258
I14
tp5777
a(I257
I15
tp5778
a(I256
I15
tp5779
a(I258
I16
tp5780
a(I257
I16
tp5781
a(I256
I16
tp5782
a(I255
I16
tp5783
a(I255
I17
tp5784
a(I255
I18
tp5785
a(I254
I17
tp5786
a(I256
I17
tp5787
a(I257
I17
tp5788
a(I261
I12
tp5789
a(I261
I11
tp5790
a(I263
I11
tp5791
a(I266
I12
tp5792
a(I264
I13
tp5793
a(I264
I14
tp5794
a(I264
I15
tp5795
a(I266
I17
tp5796
a(I266
I16
tp5797
a(I267
I17
tp5798
a(I267
I18
tp5799
a(I267
I16
tp5800
a(I267
I15
tp5801
a(I268
I15
tp5802
a(I267
I14
tp5803
a(I268
I14
tp5804
a(I267
I13
tp5805
a(I266
I14
tp5806
a(I266
I15
tp5807
a(I268
I16
tp5808
a(I264
I16
tp5809
a(I265
I19
tp5810
a(I264
I20
tp5811
a(I265
I20
tp5812
a(I266
I20
tp5813
a(I266
I19
tp5814
a(I266
I21
tp5815
a(I265
I21
tp5816
a(I262
I18
tp5817
a(I260
I22
tp5818
a(I259
I23
tp5819
a(I253
I36
tp5820
a(I253
I37
tp5821
a(I248
I46
tp5822
a(I248
I47
tp5823
a(I245
I47
tp5824
a(I241
I48
tp5825
a(I238
I49
tp5826
a(I237
I49
tp5827
a(I235
I49
tp5828
a(I236
I50
tp5829
a(I236
I49
tp5830
a(I234
I49
tp5831
a(I233
I49
tp5832
a(I233
I48
tp5833
a(I232
I48
tp5834
a(I232
I47
tp5835
a(I231
I46
tp5836
a(I230
I45
tp5837
a(I229
I44
tp5838
a(I228
I43
tp5839
a(I227
I42
tp5840
a(I233
I52
tp5841
a(I231
I54
tp5842
a(I230
I54
tp5843
a(I229
I57
tp5844
a(I226
I56
tp5845
a(I226
I55
tp5846
a(I226
I54
tp5847
a(I226
I53
tp5848
a(I225
I54
tp5849
a(I225
I53
tp5850
a(I225
I52
tp5851
a(I224
I51
tp5852
a(I223
I50
tp5853
a(I222
I49
tp5854
a(I221
I48
tp5855
a(I220
I47
tp5856
a(I227
I54
tp5857
a(I226
I57
tp5858
a(I227
I55
tp5859
a(I227
I61
tp5860
a(I225
I62
tp5861
a(I223
I61
tp5862
a(I221
I61
tp5863
a(I222
I61
tp5864
a(I220
I59
tp5865
a(I221
I59
tp5866
a(I222
I59
tp5867
a(I218
I61
tp5868
a(I219
I61
tp5869
a(I220
I61
tp5870
a(I217
I61
tp5871
a(I215
I61
tp5872
a(I216
I61
tp5873
a(I216
I62
tp5874
a(I217
I62
tp5875
a(I217
I63
tp5876
a(I217
I64
tp5877
a(I218
I64
tp5878
a(I218
I65
tp5879
a(I219
I65
tp5880
a(I219
I66
tp5881
a(I219
I67
tp5882
a(I220
I67
tp5883
a(I220
I68
tp5884
a(I221
I68
tp5885
a(I221
I69
tp5886
a(I222
I69
tp5887
a(I222
I70
tp5888
a(I222
I71
tp5889
a(I223
I71
tp5890
a(I224
I71
tp5891
a(I224
I72
tp5892
a(I224
I73
tp5893
a(I225
I73
tp5894
a(I225
I74
tp5895
a(I226
I74
tp5896
a(I226
I75
tp5897
a(I227
I75
tp5898
a(I227
I76
tp5899
a(I228
I76
tp5900
a(I228
I77
tp5901
a(I229
I77
tp5902
a(I229
I78
tp5903
a(I230
I78
tp5904
a(I230
I79
tp5905
a(I231
I79
tp5906
a(I231
I80
tp5907
a(I232
I81
tp5908
a(I233
I82
tp5909
a(I234
I83
tp5910
a(I235
I84
tp5911
a(I236
I85
tp5912
a(I237
I86
tp5913
a(I238
I87
tp5914
a(I239
I87
tp5915
a(I239
I88
tp5916
a(I240
I88
tp5917
a(I241
I89
tp5918
a(I242
I90
tp5919
a(I243
I91
tp5920
a(I245
I92
tp5921
a(I246
I93
tp5922
a(I223
I72
tp5923
a(I223
I70
tp5924
a(I211
I55
tp5925
a(I210
I50
tp5926
a(I206
I45
tp5927
a(I204
I46
tp5928
a(I205
I46
tp5929
a(I200
I50
tp5930
a(I200
I49
tp5931
a(I193
I52
tp5932
a(I193
I51
tp5933
a(I192
I51
tp5934
a(I192
I50
tp5935
a(I191
I50
tp5936
a(I191
I49
tp5937
a(I190
I49
tp5938
a(I190
I48
tp5939
a(I189
I48
tp5940
a(I189
I47
tp5941
a(I188
I47
tp5942
a(I188
I46
tp5943
a(I187
I46
tp5944
a(I187
I45
tp5945
a(I186
I44
tp5946
a(I185
I43
tp5947
a(I184
I42
tp5948
a(I183
I41
tp5949
a(I182
I40
tp5950
a(I181
I40
tp5951
a(I181
I39
tp5952
a(I180
I39
tp5953
a(I180
I38
tp5954
a(I179
I38
tp5955
a(I179
I37
tp5956
a(I178
I37
tp5957
a(I177
I36
tp5958
a(I176
I36
tp5959
a(I193
I59
tp5960
a(I194
I59
tp5961
a(I193
I60
tp5962
a(I194
I60
tp5963
a(I195
I60
tp5964
a(I194
I61
tp5965
a(I195
I61
tp5966
a(I196
I61
tp5967
a(I196
I62
tp5968
a(I196
I63
tp5969
a(I196
I64
tp5970
a(I196
I65
tp5971
a(I195
I64
tp5972
a(I195
I65
tp5973
a(I195
I66
tp5974
a(I197
I64
tp5975
a(I197
I65
tp5976
a(I197
I66
tp5977
a(I198
I66
tp5978
a(I197
I67
tp5979
a(I196
I67
tp5980
a(I196
I66
tp5981
a(I195
I67
tp5982
a(I196
I68
tp5983
a(I196
I69
tp5984
a(I196
I70
tp5985
a(I196
I71
tp5986
a(I197
I71
tp5987
a(I197
I72
tp5988
a(I197
I73
tp5989
a(I197
I74
tp5990
a(I196
I74
tp5991
a(I196
I75
tp5992
a(I197
I75
tp5993
a(I196
I76
tp5994
a(I197
I76
tp5995
a(I197
I77
tp5996
a(I197
I78
tp5997
a(I196
I77
tp5998
a(I196
I78
tp5999
a(I196
I79
tp6000
a(I196
I80
tp6001
a(I196
I81
tp6002
a(I196
I82
tp6003
a(I196
I83
tp6004
a(I196
I84
tp6005
a(I195
I80
tp6006
a(I195
I81
tp6007
a(I195
I82
tp6008
a(I195
I83
tp6009
a(I194
I83
tp6010
a(I194
I84
tp6011
a(I193
I84
tp6012
a(I192
I84
tp6013
a(I191
I84
tp6014
a(I191
I83
tp6015
a(I190
I83
tp6016
a(I189
I83
tp6017
a(I190
I84
tp6018
a(I190
I82
tp6019
a(I189
I82
tp6020
a(I190
I81
tp6021
a(I189
I81
tp6022
a(I188
I81
tp6023
a(I189
I80
tp6024
a(I188
I80
tp6025
a(I188
I79
tp6026
a(I187
I79
tp6027
a(I187
I78
tp6028
a(I188
I78
tp6029
a(I187
I77
tp6030
a(I186
I77
tp6031
a(I186
I76
tp6032
a(I185
I76
tp6033
a(I185
I75
tp6034
a(I184
I75
tp6035
a(I184
I74
tp6036
a(I184
I73
tp6037
a(I183
I73
tp6038
a(I183
I74
tp6039
a(I182
I73
tp6040
a(I183
I72
tp6041
a(I183
I71
tp6042
a(I183
I70
tp6043
a(I183
I69
tp6044
a(I182
I69
tp6045
a(I182
I68
tp6046
a(I182
I67
tp6047
a(I183
I67
tp6048
a(I184
I67
tp6049
a(I184
I68
tp6050
a(I184
I66
tp6051
a(I184
I65
tp6052
a(I183
I65
tp6053
a(I184
I64
tp6054
a(I183
I64
tp6055
a(I185
I64
tp6056
a(I184
I63
tp6057
a(I185
I65
tp6058
a(I185
I66
tp6059
a(I182
I66
tp6060
a(I183
I66
tp6061
a(I183
I68
tp6062
a(I182
I71
tp6063
a(I182
I70
tp6064
a(I181
I71
tp6065
a(I181
I70
tp6066
a(I181
I69
tp6067
a(I182
I72
tp6068
a(I194
I85
tp6069
a(I194
I86
tp6070
a(I193
I86
tp6071
a(I193
I85
tp6072
a(I192
I86
tp6073
a(I192
I85
tp6074
a(I191
I85
tp6075
a(I195
I85
tp6076
a(I195
I84
tp6077
a(I197
I80
tp6078
a(I197
I79
tp6079
a(I197
I81
tp6080
a(I196
I72
tp6081
a(I196
I73
tp6082
a(I197
I70
tp6083
a(I195
I69
tp6084
a(I195
I70
tp6085
a(I195
I71
tp6086
a(I197
I68
tp6087
a(I198
I68
tp6088
a(I198
I69
tp6089
a(I198
I67
tp6090
a(I199
I67
tp6091
a(I200
I67
tp6092
a(I200
I68
tp6093
a(I201
I68
tp6094
a(I201
I69
tp6095
a(I201
I70
tp6096
a(I202
I70
tp6097
a(I203
I70
tp6098
a(I202
I71
tp6099
a(I202
I72
tp6100
a(I203
I72
tp6101
a(I202
I73
tp6102
a(I203
I73
tp6103
a(I202
I74
tp6104
a(I203
I74
tp6105
a(I203
I75
tp6106
a(I203
I76
tp6107
a(I203
I77
tp6108
a(I202
I75
tp6109
a(I201
I71
tp6110
a(I203
I71
tp6111
a(I202
I69
tp6112
a(I203
I69
tp6113
a(I204
I69
tp6114
a(I204
I70
tp6115
a(I205
I70
tp6116
a(I206
I70
tp6117
a(I207
I70
tp6118
a(I207
I71
tp6119
a(I207
I72
tp6120
a(I208
I70
tp6121
a(I209
I70
tp6122
a(I209
I71
tp6123
a(I209
I72
tp6124
a(I208
I72
tp6125
a(I209
I73
tp6126
a(I208
I73
tp6127
a(I209
I74
tp6128
a(I208
I74
tp6129
a(I209
I75
tp6130
a(I209
I76
tp6131
a(I208
I76
tp6132
a(I208
I77
tp6133
a(I209
I77
tp6134
a(I209
I78
tp6135
a(I209
I79
tp6136
a(I211
I82
tp6137
a(I211
I83
tp6138
a(I212
I83
tp6139
a(I212
I82
tp6140
a(I212
I84
tp6141
a(I211
I84
tp6142
a(I212
I85
tp6143
a(I211
I85
tp6144
a(I210
I85
tp6145
a(I211
I86
tp6146
a(I210
I86
tp6147
a(I211
I87
tp6148
a(I210
I87
tp6149
a(I211
I88
tp6150
a(I210
I88
tp6151
a(I210
I89
tp6152
a(I211
I89
tp6153
a(I212
I89
tp6154
a(I212
I90
tp6155
a(I210
I90
tp6156
a(I211
I90
tp6157
a(I210
I91
tp6158
a(I211
I91
tp6159
a(I211
I92
tp6160
a(I212
I92
tp6161
a(I212
I91
tp6162
a(I213
I92
tp6163
a(I213
I93
tp6164
a(I214
I93
tp6165
a(I214
I94
tp6166
a(I215
I94
tp6167
a(I214
I95
tp6168
a(I211
I99
tp6169
a(I210
I99
tp6170
a(I211
I100
tp6171
a(I210
I100
tp6172
a(I209
I100
tp6173
a(I212
I100
tp6174
a(I215
I95
tp6175
a(I215
I96
tp6176
a(I216
I95
tp6177
a(I209
I89
tp6178
a(I209
I90
tp6179
a(I208
I89
tp6180
a(I207
I89
tp6181
a(I206
I89
tp6182
a(I205
I89
tp6183
a(I208
I90
tp6184
a(I207
I90
tp6185
a(I206
I90
tp6186
a(I205
I90
tp6187
a(I208
I91
tp6188
a(I209
I91
tp6189
a(I207
I91
tp6190
a(I207
I92
tp6191
a(I206
I92
tp6192
a(I206
I93
tp6193
a(I205
I92
tp6194
a(I205
I93
tp6195
a(I205
I94
tp6196
a(I204
I94
tp6197
a(I204
I93
tp6198
a(I203
I94
tp6199
a(I202
I94
tp6200
a(I203
I93
tp6201
a(I202
I93
tp6202
a(I203
I92
tp6203
a(I202
I92
tp6204
a(I203
I91
tp6205
a(I202
I91
tp6206
a(I204
I91
tp6207
a(I204
I92
tp6208
a(I203
I90
tp6209
a(I204
I90
tp6210
a(I204
I95
tp6211
a(I203
I95
tp6212
a(I202
I95
tp6213
a(I204
I96
tp6214
a(I203
I96
tp6215
a(I202
I96
tp6216
a(I203
I97
tp6217
a(I202
I97
tp6218
a(I203
I98
tp6219
a(I202
I98
tp6220
a(I201
I98
tp6221
a(I200
I98
tp6222
a(I201
I97
tp6223
a(I200
I97
tp6224
a(I201
I96
tp6225
a(I201
I95
tp6226
a(I200
I96
tp6227
a(I199
I96
tp6228
a(I198
I96
tp6229
a(I197
I96
tp6230
a(I197
I97
tp6231
a(I196
I97
tp6232
a(I195
I98
tp6233
a(I195
I99
tp6234
a(I199
I95
tp6235
a(I200
I95
tp6236
a(I200
I94
tp6237
a(I201
I94
tp6238
a(I201
I93
tp6239
a(I200
I93
tp6240
a(I201
I92
tp6241
a(I198
I95
tp6242
a(I198
I94
tp6243
a(I199
I94
tp6244
a(I199
I97
tp6245
a(I198
I97
tp6246
a(I199
I98
tp6247
a(I198
I98
tp6248
a(I199
I99
tp6249
a(I198
I99
tp6250
a(I198
I100
tp6251
a(I197
I100
tp6252
a(I197
I101
tp6253
a(I198
I101
tp6254
a(I197
I102
tp6255
a(I197
I103
tp6256
a(I201
I99
tp6257
a(I203
I99
tp6258
a(I202
I99
tp6259
a(I203
I100
tp6260
a(I202
I100
tp6261
a(I201
I100
tp6262
a(I202
I101
tp6263
a(I201
I101
tp6264
a(I203
I101
tp6265
a(I202
I102
tp6266
a(I201
I102
tp6267
a(I203
I102
tp6268
a(I202
I103
tp6269
a(I202
I104
tp6270
a(I202
I105
tp6271
a(I201
I103
tp6272
a(I201
I104
tp6273
a(I201
I105
tp6274
a(I201
I106
tp6275
a(I202
I106
tp6276
a(I203
I106
tp6277
a(I201
I107
tp6278
a(I202
I107
tp6279
a(I203
I107
tp6280
a(I202
I108
tp6281
a(I203
I108
tp6282
a(I202
I109
tp6283
a(I202
I110
tp6284
a(I203
I110
tp6285
a(I203
I109
tp6286
a(I203
I111
tp6287
a(I204
I111
tp6288
a(I203
I112
tp6289
a(I203
I113
tp6290
a(I204
I113
tp6291
a(I204
I112
tp6292
a(I205
I113
tp6293
a(I205
I114
tp6294
a(I204
I114
tp6295
a(I206
I114
tp6296
a(I207
I114
tp6297
a(I206
I115
tp6298
a(I207
I115
tp6299
a(I208
I115
tp6300
a(I208
I116
tp6301
a(I209
I115
tp6302
a(I210
I115
tp6303
a(I211
I115
tp6304
a(I212
I115
tp6305
a(I213
I115
tp6306
a(I214
I115
tp6307
a(I215
I115
tp6308
a(I216
I115
tp6309
a(I217
I115
tp6310
a(I218
I115
tp6311
a(I219
I115
tp6312
a(I220
I115
tp6313
a(I218
I116
tp6314
a(I217
I116
tp6315
a(I219
I116
tp6316
a(I220
I116
tp6317
a(I221
I116
tp6318
a(I221
I115
tp6319
a(I222
I115
tp6320
a(I222
I114
tp6321
a(I221
I114
tp6322
a(I220
I114
tp6323
a(I222
I113
tp6324
a(I223
I114
tp6325
a(I223
I113
tp6326
a(I224
I113
tp6327
a(I223
I112
tp6328
a(I224
I112
tp6329
a(I225
I112
tp6330
a(I224
I111
tp6331
a(I225
I111
tp6332
a(I226
I111
tp6333
a(I226
I110
tp6334
a(I226
I109
tp6335
a(I226
I108
tp6336
a(I227
I108
tp6337
a(I228
I108
tp6338
a(I229
I108
tp6339
a(I230
I108
tp6340
a(I231
I108
tp6341
a(I230
I109
tp6342
a(I231
I109
tp6343
a(I231
I110
tp6344
a(I232
I110
tp6345
a(I232
I109
tp6346
a(I233
I110
tp6347
a(I233
I109
tp6348
a(I234
I110
tp6349
a(I234
I111
tp6350
a(I234
I112
tp6351
a(I234
I113
tp6352
a(I235
I112
tp6353
a(I233
I111
tp6354
a(I233
I112
tp6355
a(I233
I113
tp6356
a(I233
I114
tp6357
a(I234
I114
tp6358
a(I233
I115
tp6359
a(I234
I115
tp6360
a(I232
I115
tp6361
a(I232
I116
tp6362
a(I233
I116
tp6363
a(I232
I117
tp6364
a(I233
I117
tp6365
a(I232
I118
tp6366
a(I231
I118
tp6367
a(I232
I119
tp6368
a(I231
I119
tp6369
a(I231
I120
tp6370
a(I231
I121
tp6371
a(I230
I107
tp6372
a(I227
I107
tp6373
a(I228
I107
tp6374
a(I229
I107
tp6375
a(I228
I106
tp6376
a(I229
I106
tp6377
a(I227
I106
tp6378
a(I226
I106
tp6379
a(I226
I107
tp6380
a(I227
I105
tp6381
a(I226
I105
tp6382
a(I226
I104
tp6383
a(I225
I105
tp6384
a(I225
I104
tp6385
a(I225
I103
tp6386
a(I224
I103
tp6387
a(I223
I103
tp6388
a(I224
I104
tp6389
a(I224
I102
tp6390
a(I223
I102
tp6391
a(I222
I102
tp6392
a(I222
I101
tp6393
a(I221
I101
tp6394
a(I221
I100
tp6395
a(I220
I100
tp6396
a(I220
I99
tp6397
a(I219
I99
tp6398
a(I219
I98
tp6399
a(I218
I98
tp6400
a(I217
I98
tp6401
a(I218
I97
tp6402
a(I217
I97
tp6403
a(I216
I97
tp6404
a(I217
I96
tp6405
a(I216
I96
tp6406
a(I225
I108
tp6407
a(I225
I109
tp6408
a(I224
I110
tp6409
a(I225
I110
tp6410
a(I215
I116
tp6411
a(I216
I116
tp6412
a(I215
I117
tp6413
a(I214
I117
tp6414
a(I216
I117
tp6415
a(I213
I116
tp6416
a(I214
I116
tp6417
a(I212
I116
tp6418
a(I209
I116
tp6419
a(I210
I116
tp6420
a(I211
I116
tp6421
a(I202
I111
tp6422
a(I206
I91
tp6423
a(I205
I91
tp6424
a(I209
I88
tp6425
a(I209
I87
tp6426
a(I208
I88
tp6427
a(I208
I87
tp6428
a(I207
I88
tp6429
a(I206
I88
tp6430
a(I213
I83
tp6431
a(I213
I82
tp6432
a(I213
I81
tp6433
a(I214
I82
tp6434
a(I214
I83
tp6435
a(I215
I82
tp6436
a(I216
I82
tp6437
a(I217
I82
tp6438
a(I218
I82
tp6439
a(I215
I81
tp6440
a(I216
I81
tp6441
a(I214
I81
tp6442
a(I210
I83
tp6443
a(I210
I84
tp6444
a(I210
I76
tp6445
a(I208
I75
tp6446
a(I210
I75
tp6447
a(I210
I74
tp6448
a(I210
I70
tp6449
a(I211
I70
tp6450
a(I212
I70
tp6451
a(I213
I70
tp6452
a(I214
I70
tp6453
a(I215
I70
tp6454
a(I215
I71
tp6455
a(I216
I71
tp6456
a(I217
I71
tp6457
a(I217
I72
tp6458
a(I216
I72
tp6459
a(I217
I73
tp6460
a(I218
I72
tp6461
a(I218
I73
tp6462
a(I218
I74
tp6463
a(I219
I73
tp6464
a(I219
I74
tp6465
a(I219
I75
tp6466
a(I220
I75
tp6467
a(I220
I76
tp6468
a(I221
I76
tp6469
a(I221
I77
tp6470
a(I222
I77
tp6471
a(I222
I78
tp6472
a(I221
I78
tp6473
a(I222
I79
tp6474
a(I223
I79
tp6475
a(I223
I80
tp6476
a(I224
I79
tp6477
a(I224
I80
tp6478
a(I225
I80
tp6479
a(I225
I81
tp6480
a(I224
I81
tp6481
a(I225
I82
tp6482
a(I226
I82
tp6483
a(I226
I81
tp6484
a(I226
I83
tp6485
a(I227
I83
tp6486
a(I227
I84
tp6487
a(I228
I84
tp6488
a(I228
I85
tp6489
a(I229
I85
tp6490
a(I230
I85
tp6491
a(I230
I86
tp6492
a(I231
I86
tp6493
a(I232
I87
tp6494
a(I232
I88
tp6495
a(I233
I88
tp6496
a(I233
I89
tp6497
a(I234
I89
tp6498
a(I234
I90
tp6499
a(I236
I90
tp6500
a(I236
I91
tp6501
a(I237
I91
tp6502
a(I237
I92
tp6503
a(I238
I92
tp6504
a(I238
I93
tp6505
a(I239
I93
tp6506
a(I240
I93
tp6507
a(I240
I94
tp6508
a(I241
I94
tp6509
a(I241
I95
tp6510
a(I242
I95
tp6511
a(I243
I95
tp6512
a(I243
I96
tp6513
a(I244
I96
tp6514
a(I244
I97
tp6515
a(I245
I97
tp6516
a(I246
I97
tp6517
a(I246
I98
tp6518
a(I247
I98
tp6519
a(I248
I98
tp6520
a(I248
I99
tp6521
a(I249
I99
tp6522
a(I249
I100
tp6523
a(I250
I100
tp6524
a(I251
I100
tp6525
a(I250
I101
tp6526
a(I251
I101
tp6527
a(I252
I101
tp6528
a(I252
I102
tp6529
a(I251
I102
tp6530
a(I252
I103
tp6531
a(I253
I103
tp6532
a(I253
I101
tp6533
a(I253
I102
tp6534
a(I254
I101
tp6535
a(I255
I101
tp6536
a(I254
I102
tp6537
a(I255
I102
tp6538
a(I254
I103
tp6539
a(I254
I104
tp6540
a(I253
I104
tp6541
a(I254
I105
tp6542
a(I255
I105
tp6543
a(I255
I104
tp6544
a(I255
I103
tp6545
a(I256
I105
tp6546
a(I256
I106
tp6547
a(I257
I106
tp6548
a(I256
I107
tp6549
a(I257
I107
tp6550
a(I257
I108
tp6551
a(I258
I108
tp6552
a(I258
I109
tp6553
a(I259
I109
tp6554
a(I259
I110
tp6555
a(I259
I111
tp6556
a(I260
I111
tp6557
a(I260
I112
tp6558
a(I259
I112
tp6559
a(I258
I112
tp6560
a(I257
I112
tp6561
a(I256
I112
tp6562
a(I256
I111
tp6563
a(I255
I111
tp6564
a(I254
I111
tp6565
a(I253
I111
tp6566
a(I254
I110
tp6567
a(I253
I110
tp6568
a(I255
I112
tp6569
a(I254
I112
tp6570
a(I255
I113
tp6571
a(I254
I113
tp6572
a(I255
I114
tp6573
a(I256
I115
tp6574
a(I256
I116
tp6575
a(I257
I117
tp6576
a(I257
I118
tp6577
a(I256
I118
tp6578
a(I255
I118
tp6579
a(I254
I118
tp6580
a(I253
I118
tp6581
a(I252
I118
tp6582
a(I253
I117
tp6583
a(I254
I117
tp6584
a(I253
I119
tp6585
a(I256
I119
tp6586
a(I257
I119
tp6587
a(I258
I119
tp6588
a(I258
I118
tp6589
a(I256
I120
tp6590
a(I256
I121
tp6591
a(I255
I121
tp6592
a(I257
I121
tp6593
a(I257
I122
tp6594
a(I256
I122
tp6595
a(I257
I123
tp6596
a(I258
I123
tp6597
a(I258
I124
tp6598
a(I259
I124
tp6599
a(I259
I125
tp6600
a(I260
I125
tp6601
a(I260
I126
tp6602
a(I261
I126
tp6603
a(I261
I127
tp6604
a(I261
I128
tp6605
a(I262
I127
tp6606
a(I262
I128
tp6607
a(I262
I129
tp6608
a(I263
I129
tp6609
a(I263
I130
tp6610
a(I264
I130
tp6611
a(I264
I131
tp6612
a(I265
I131
tp6613
a(I265
I132
tp6614
a(I266
I132
tp6615
a(I266
I133
tp6616
a(I267
I133
tp6617
a(I267
I134
tp6618
a(I268
I134
tp6619
a(I268
I135
tp6620
a(I269
I135
tp6621
a(I269
I136
tp6622
a(I270
I136
tp6623
a(I270
I137
tp6624
a(I271
I137
tp6625
a(I271
I138
tp6626
a(I272
I138
tp6627
a(I272
I139
tp6628
a(I273
I140
tp6629
a(I274
I141
tp6630
a(I274
I142
tp6631
a(I275
I142
tp6632
a(I275
I143
tp6633
a(I276
I143
tp6634
a(I276
I144
tp6635
a(I277
I144
tp6636
a(I277
I145
tp6637
a(I278
I145
tp6638
a(I278
I146
tp6639
a(I260
I127
tp6640
a(I255
I119
tp6641
a(I254
I119
tp6642
a(I255
I120
tp6643
a(I254
I120
tp6644
a(I260
I113
tp6645
a(I259
I113
tp6646
a(I258
I113
tp6647
a(I257
I113
tp6648
a(I261
I113
tp6649
a(I261
I114
tp6650
a(I260
I114
tp6651
a(I253
I100
tp6652
a(I254
I100
tp6653
a(I254
I99
tp6654
a(I254
I98
tp6655
a(I254
I97
tp6656
a(I253
I98
tp6657
a(I253
I97
tp6658
a(I252
I97
tp6659
a(I253
I96
tp6660
a(I252
I96
tp6661
a(I251
I96
tp6662
a(I249
I95
tp6663
a(I253
I95
tp6664
a(I252
I95
tp6665
a(I253
I94
tp6666
a(I252
I94
tp6667
a(I252
I93
tp6668
a(I253
I92
tp6669
a(I253
I91
tp6670
a(I253
I90
tp6671
a(I254
I90
tp6672
a(I254
I89
tp6673
a(I254
I88
tp6674
a(I255
I88
tp6675
a(I255
I87
tp6676
a(I255
I86
tp6677
a(I255
I85
tp6678
a(I256
I85
tp6679
a(I256
I84
tp6680
a(I256
I83
tp6681
a(I257
I83
tp6682
a(I256
I82
tp6683
a(I257
I82
tp6684
a(I257
I81
tp6685
a(I257
I80
tp6686
a(I258
I80
tp6687
a(I258
I81
tp6688
a(I258
I79
tp6689
a(I258
I78
tp6690
a(I259
I78
tp6691
a(I259
I77
tp6692
a(I258
I77
tp6693
a(I259
I76
tp6694
a(I259
I75
tp6695
a(I260
I75
tp6696
a(I260
I74
tp6697
a(I260
I73
tp6698
a(I260
I72
tp6699
a(I260
I71
tp6700
a(I261
I70
tp6701
a(I261
I69
tp6702
a(I261
I68
tp6703
a(I261
I67
tp6704
a(I261
I66
tp6705
a(I261
I65
tp6706
a(I260
I65
tp6707
a(I261
I64
tp6708
a(I260
I64
tp6709
a(I259
I64
tp6710
a(I259
I63
tp6711
a(I260
I63
tp6712
a(I259
I62
tp6713
a(I260
I62
tp6714
a(I260
I61
tp6715
a(I258
I64
tp6716
a(I259
I65
tp6717
a(I258
I65
tp6718
a(I258
I66
tp6719
a(I257
I66
tp6720
a(I258
I67
tp6721
a(I257
I67
tp6722
a(I257
I68
tp6723
a(I257
I69
tp6724
a(I256
I69
tp6725
a(I257
I70
tp6726
a(I256
I70
tp6727
a(I256
I71
tp6728
a(I256
I72
tp6729
a(I255
I72
tp6730
a(I256
I73
tp6731
a(I255
I73
tp6732
a(I255
I74
tp6733
a(I254
I73
tp6734
a(I253
I73
tp6735
a(I254
I74
tp6736
a(I253
I74
tp6737
a(I254
I75
tp6738
a(I255
I75
tp6739
a(I253
I75
tp6740
a(I252
I75
tp6741
a(I252
I74
tp6742
a(I252
I73
tp6743
a(I252
I72
tp6744
a(I252
I71
tp6745
a(I252
I70
tp6746
a(I252
I69
tp6747
a(I252
I68
tp6748
a(I252
I67
tp6749
a(I254
I76
tp6750
a(I253
I76
tp6751
a(I252
I76
tp6752
a(I254
I77
tp6753
a(I253
I77
tp6754
a(I253
I78
tp6755
a(I254
I87
tp6756
a(I252
I100
tp6757
a(I247
I99
tp6758
a(I229
I86
tp6759
a(I223
I78
tp6760
a(I216
I70
tp6761
a(I208
I71
tp6762
a(I199
I68
tp6763
a(I197
I69
tp6764
a(I195
I68
tp6765
a(I194
I62
tp6766
a(I195
I62
tp6767
a(I194
I63
tp6768
a(I195
I63
tp6769
a(I194
I64
tp6770
a(I193
I61
tp6771
a(I188
I58
tp6772
a(I188
I59
tp6773
a(I188
I60
tp6774
a(I188
I61
tp6775
a(I187
I60
tp6776
a(I187
I61
tp6777
a(I186
I60
tp6778
a(I186
I61
tp6779
a(I186
I62
tp6780
a(I186
I63
tp6781
a(I187
I63
tp6782
a(I187
I62
tp6783
a(I186
I64
tp6784
a(I185
I62
tp6785
a(I185
I63
tp6786
a(I189
I60
tp6787
a(I187
I59
tp6788
a(I189
I59
tp6789
a(I188
I55
tp6790
a(I185
I48
tp6791
a(I179
I44
tp6792
a(I173
I43
tp6793
a(I172
I42
tp6794
a(I173
I42
tp6795
a(I168
I42
tp6796
a(I169
I42
tp6797
a(I170
I42
tp6798
a(I169
I41
tp6799
a(I166
I47
tp6800
a(I164
I45
tp6801
a(I165
I45
tp6802
a(I164
I44
tp6803
a(I164
I43
tp6804
a(I164
I42
tp6805
a(I163
I42
tp6806
a(I162
I41
tp6807
a(I165
I43
tp6808
a(I165
I44
tp6809
a(I163
I45
tp6810
a(I163
I46
tp6811
a(I162
I46
tp6812
a(I162
I45
tp6813
a(I161
I45
tp6814
a(I161
I44
tp6815
a(I160
I44
tp6816
a(I159
I44
tp6817
a(I159
I43
tp6818
a(I158
I43
tp6819
a(I158
I42
tp6820
a(I157
I42
tp6821
a(I157
I41
tp6822
a(I156
I41
tp6823
a(I156
I40
tp6824
a(I155
I41
tp6825
a(I154
I41
tp6826
a(I153
I41
tp6827
a(I152
I41
tp6828
a(I152
I40
tp6829
a(I151
I40
tp6830
a(I150
I40
tp6831
a(I149
I40
tp6832
a(I148
I40
tp6833
a(I147
I40
tp6834
a(I146
I40
tp6835
a(I145
I40
tp6836
a(I144
I40
tp6837
a(I143
I40
tp6838
a(I142
I40
tp6839
a(I141
I40
tp6840
a(I142
I41
tp6841
a(I141
I41
tp6842
a(I140
I41
tp6843
a(I139
I41
tp6844
a(I138
I41
tp6845
a(I138
I42
tp6846
a(I137
I41
tp6847
a(I137
I42
tp6848
a(I136
I41
tp6849
a(I135
I41
tp6850
a(I135
I42
tp6851
a(I134
I42
tp6852
a(I133
I42
tp6853
a(I133
I41
tp6854
a(I133
I40
tp6855
a(I132
I40
tp6856
a(I132
I39
tp6857
a(I132
I38
tp6858
a(I132
I37
tp6859
a(I132
I36
tp6860
a(I132
I35
tp6861
a(I131
I35
tp6862
a(I131
I34
tp6863
a(I131
I33
tp6864
a(I131
I32
tp6865
a(I131
I31
tp6866
a(I130
I31
tp6867
a(I130
I30
tp6868
a(I129
I31
tp6869
a(I129
I30
tp6870
a(I129
I29
tp6871
a(I128
I30
tp6872
a(I128
I29
tp6873
a(I127
I29
tp6874
a(I128
I28
tp6875
a(I127
I28
tp6876
a(I126
I27
tp6877
a(I125
I26
tp6878
a(I124
I26
tp6879
a(I124
I25
tp6880
a(I123
I25
tp6881
a(I122
I25
tp6882
a(I122
I24
tp6883
a(I123
I24
tp6884
a(I121
I24
tp6885
a(I120
I24
tp6886
a(I120
I25
tp6887
a(I119
I25
tp6888
a(I119
I24
tp6889
a(I118
I24
tp6890
a(I118
I25
tp6891
a(I117
I25
tp6892
a(I117
I26
tp6893
a(I116
I26
tp6894
a(I116
I27
tp6895
a(I115
I27
tp6896
a(I115
I28
tp6897
a(I114
I28
tp6898
a(I114
I29
tp6899
a(I113
I28
tp6900
a(I113
I29
tp6901
a(I113
I27
tp6902
a(I112
I28
tp6903
a(I112
I29
tp6904
a(I112
I30
tp6905
a(I111
I29
tp6906
a(I110
I29
tp6907
a(I110
I30
tp6908
a(I111
I30
tp6909
a(I111
I31
tp6910
a(I110
I31
tp6911
a(I109
I30
tp6912
a(I109
I31
tp6913
a(I108
I31
tp6914
a(I107
I32
tp6915
a(I106
I32
tp6916
a(I114
I27
tp6917
a(I115
I26
tp6918
a(I131
I30
tp6919
a(I130
I33
tp6920
a(I130
I32
tp6921
a(I134
I41
tp6922
a(I136
I42
tp6923
a(I140
I40
tp6924
a(I139
I40
tp6925
a(I152
I42
tp6926
a(I153
I42
tp6927
a(I153
I43
tp6928
a(I152
I43
tp6929
a(I152
I44
tp6930
a(I152
I45
tp6931
a(I153
I45
tp6932
a(I154
I45
tp6933
a(I154
I46
tp6934
a(I155
I46
tp6935
a(I156
I46
tp6936
a(I156
I45
tp6937
a(I155
I47
tp6938
a(I155
I45
tp6939
a(I152
I46
tp6940
a(I153
I46
tp6941
a(I152
I47
tp6942
a(I153
I47
tp6943
a(I154
I47
tp6944
a(I154
I48
tp6945
a(I152
I48
tp6946
a(I153
I48
tp6947
a(I153
I49
tp6948
a(I152
I49
tp6949
a(I151
I49
tp6950
a(I151
I50
tp6951
a(I150
I50
tp6952
a(I150
I51
tp6953
a(I152
I50
tp6954
a(I151
I46
tp6955
a(I151
I44
tp6956
a(I151
I43
tp6957
a(I150
I43
tp6958
a(I150
I44
tp6959
a(I151
I45
tp6960
a(I155
I42
tp6961
a(I156
I42
tp6962
a(I154
I42
tp6963
a(I155
I40
tp6964
a(I155
I39
tp6965
a(I155
I38
tp6966
a(I155
I37
tp6967
a(I154
I38
tp6968
a(I156
I38
tp6969
a(I156
I37
tp6970
a(I156
I36
tp6971
a(I155
I36
tp6972
a(I157
I36
tp6973
a(I157
I35
tp6974
a(I158
I35
tp6975
a(I157
I37
tp6976
a(I158
I37
tp6977
a(I158
I38
tp6978
a(I159
I37
tp6979
a(I158
I36
tp6980
a(I159
I36
tp6981
a(I160
I36
tp6982
a(I161
I36
tp6983
a(I162
I36
tp6984
a(I163
I36
tp6985
a(I164
I36
tp6986
a(I165
I36
tp6987
a(I164
I35
tp6988
a(I163
I37
tp6989
a(I162
I37
tp6990
a(I164
I37
tp6991
a(I165
I37
tp6992
a(I166
I37
tp6993
a(I166
I38
tp6994
a(I167
I38
tp6995
a(I167
I37
tp6996
a(I168
I37
tp6997
a(I169
I37
tp6998
a(I170
I37
tp6999
a(I169
I36
tp7000
a(I168
I36
tp7001
a(I168
I35
tp7002
a(I168
I34
tp7003
a(I167
I35
tp7004
a(I167
I34
tp7005
a(I166
I34
tp7006
a(I166
I33
tp7007
a(I165
I33
tp7008
a(I167
I33
tp7009
a(I166
I32
tp7010
a(I165
I32
tp7011
a(I164
I32
tp7012
a(I163
I32
tp7013
a(I162
I32
tp7014
a(I162
I33
tp7015
a(I163
I34
tp7016
a(I164
I31
tp7017
a(I163
I31
tp7018
a(I162
I31
tp7019
a(I161
I31
tp7020
a(I160
I30
tp7021
a(I159
I29
tp7022
a(I158
I28
tp7023
a(I157
I27
tp7024
a(I156
I26
tp7025
a(I155
I26
tp7026
a(I155
I25
tp7027
a(I154
I25
tp7028
a(I154
I24
tp7029
a(I153
I24
tp7030
a(I152
I24
tp7031
a(I152
I23
tp7032
a(I151
I22
tp7033
a(I151
I21
tp7034
a(I151
I20
tp7035
a(I150
I20
tp7036
a(I150
I19
tp7037
a(I150
I18
tp7038
a(I150
I17
tp7039
a(I149
I17
tp7040
a(I149
I16
tp7041
a(I149
I15
tp7042
a(I149
I14
tp7043
a(I149
I13
tp7044
a(I149
I12
tp7045
a(I149
I11
tp7046
a(I148
I11
tp7047
a(I148
I10
tp7048
a(I149
I10
tp7049
a(I148
I9
tp7050
a(I149
I9
tp7051
a(I148
I8
tp7052
a(I148
I7
tp7053
a(I149
I7
tp7054
a(I149
I8
tp7055
a(I148
I6
tp7056
a(I148
I5
tp7057
a(I148
I4
tp7058
a(I147
I4
tp7059
a(I147
I3
tp7060
a(I146
I3
tp7061
a(I146
I2
tp7062
a(I144
I1
tp7063
a(I143
I1
tp7064
a(I142
I0
tp7065
a(I141
I0
tp7066
a(I147
I6
tp7067
a(I147
I5
tp7068
a(I150
I16
tp7069
a(I150
I21
tp7070
a(I167
I32
tp7071
a(I168
I32
tp7072
a(I168
I33
tp7073
a(I169
I33
tp7074
a(I170
I33
tp7075
a(I171
I33
tp7076
a(I172
I34
tp7077
a(I173
I34
tp7078
a(I174
I35
tp7079
a(I175
I35
tp7080
a(I168
I38
tp7081
a(I169
I38
tp7082
a(I168
I39
tp7083
a(I168
I40
tp7084
a(I156
I35
tp7085
a(I155
I35
tp7086
a(I154
I35
tp7087
a(I153
I35
tp7088
a(I153
I34
tp7089
a(I152
I34
tp7090
a(I152
I33
tp7091
a(I151
I32
tp7092
a(I150
I31
tp7093
a(I147
I29
tp7094
a(I146
I28
tp7095
a(I145
I28
tp7096
a(I145
I27
tp7097
a(I144
I27
tp7098
a(I144
I26
tp7099
a(I143
I26
tp7100
a(I143
I25
tp7101
a(I142
I25
tp7102
a(I142
I24
tp7103
a(I141
I23
tp7104
a(I141
I22
tp7105
a(I140
I22
tp7106
a(I140
I21
tp7107
a(I139
I20
tp7108
a(I139
I19
tp7109
a(I138
I18
tp7110
a(I138
I17
tp7111
a(I137
I17
tp7112
a(I137
I16
tp7113
a(I136
I16
tp7114
a(I136
I15
tp7115
a(I135
I15
tp7116
a(I134
I15
tp7117
a(I133
I14
tp7118
a(I132
I14
tp7119
a(I132
I13
tp7120
a(I131
I13
tp7121
a(I130
I13
tp7122
a(I153
I36
tp7123
a(I153
I37
tp7124
a(I153
I38
tp7125
a(I154
I34
tp7126
a(I154
I36
tp7127
a(I154
I37
tp7128
a(I157
I40
tp7129
a(I157
I39
tp7130
a(I157
I38
tp7131
a(I156
I39
tp7132
a(I158
I40
tp7133
a(I158
I39
tp7134
a(I159
I40
tp7135
a(I160
I40
tp7136
a(I161
I40
tp7137
a(I159
I39
tp7138
a(I160
I39
tp7139
a(I159
I38
tp7140
a(I162
I47
tp7141
a(I165
I48
tp7142
a(I163
I47
tp7143
a(I162
I48
tp7144
a(I161
I52
tp7145
a(I161
I51
tp7146
a(I160
I52
tp7147
a(I160
I51
tp7148
a(I160
I50
tp7149
a(I161
I53
tp7150
a(I159
I55
tp7151
a(I159
I56
tp7152
a(I158
I56
tp7153
a(I161
I56
tp7154
a(I161
I57
tp7155
a(I162
I56
tp7156
a(I162
I55
tp7157
a(I162
I57
tp7158
a(I161
I55
tp7159
a(I162
I69
tp7160
a(I162
I68
tp7161
a(I162
I67
tp7162
a(I162
I66
tp7163
a(I162
I70
tp7164
a(I162
I71
tp7165
a(I161
I70
tp7166
a(I161
I71
tp7167
a(I160
I71
tp7168
a(I159
I71
tp7169
a(I160
I72
tp7170
a(I161
I72
tp7171
a(I159
I72
tp7172
a(I158
I72
tp7173
a(I158
I73
tp7174
a(I157
I73
tp7175
a(I156
I73
tp7176
a(I155
I73
tp7177
a(I157
I72
tp7178
a(I156
I72
tp7179
a(I159
I73
tp7180
a(I166
I70
tp7181
a(I166
I71
tp7182
a(I167
I70
tp7183
a(I167
I69
tp7184
a(I168
I69
tp7185
a(I168
I68
tp7186
a(I169
I68
tp7187
a(I169
I67
tp7188
a(I170
I67
tp7189
a(I171
I67
tp7190
a(I171
I68
tp7191
a(I171
I66
tp7192
a(I172
I67
tp7193
a(I172
I66
tp7194
a(I172
I65
tp7195
a(I171
I65
tp7196
a(I170
I65
tp7197
a(I171
I64
tp7198
a(I173
I65
tp7199
a(I170
I66
tp7200
a(I170
I68
tp7201
a(I169
I69
tp7202
a(I170
I69
tp7203
a(I170
I70
tp7204
a(I169
I70
tp7205
a(I169
I71
tp7206
a(I168
I71
tp7207
a(I168
I72
tp7208
a(I168
I70
tp7209
a(I167
I71
tp7210
a(I163
I75
tp7211
a(I165
I75
tp7212
a(I166
I76
tp7213
a(I166
I75
tp7214
a(I166
I74
tp7215
a(I166
I73
tp7216
a(I167
I73
tp7217
a(I167
I74
tp7218
a(I167
I72
tp7219
a(I166
I72
tp7220
a(I163
I77
tp7221
a(I162
I77
tp7222
a(I163
I76
tp7223
a(I163
I80
tp7224
a(I162
I82
tp7225
a(I162
I81
tp7226
a(I163
I81
tp7227
a(I162
I83
tp7228
a(I159
I83
tp7229
a(I161
I83
tp7230
a(I159
I84
tp7231
a(I158
I84
tp7232
a(I158
I85
tp7233
a(I157
I84
tp7234
a(I156
I84
tp7235
a(I161
I85
tp7236
a(I161
I84
tp7237
a(I162
I85
tp7238
a(I162
I84
tp7239
a(I159
I85
tp7240
a(I161
I87
tp7241
a(I161
I86
tp7242
a(I161
I88
tp7243
a(I157
I99
tp7244
a(I157
I100
tp7245
a.