(lp0
(I0
I125
I171
tp1
a(I0
I124
I171
tp2
a(I1
I123
I172
tp3
a(I2
I123
I173
tp4
a(I3
I122
I173
tp5
a(I4
I121
I174
tp6
a(I5
I120
I174
tp7
a(I6
I119
I175
tp8
a(I7
I118
I176
tp9
a(I8
I118
I176
tp10
a(I9
I117
I177
tp11
a(I10
I116
I177
tp12
a(I10
I115
I177
tp13
a(I11
I115
I178
tp14
a(I12
I114
I179
tp15
a(I13
I113
I179
tp16
a(I14
I112
I179
tp17
a(I15
I111
I180
tp18
a(I16
I110
I181
tp19
a(I17
I110
I181
tp20
a(I18
I109
I182
tp21
a(I19
I108
I182
tp22
a(I20
I107
I182
tp23
a(I21
I106
I183
tp24
a(I22
I105
I183
tp25
a(I23
I105
I184
tp26
a(I24
I104
I184
tp27
a(I25
I103
I184
tp28
a(I25
I102
I184
tp29
a(I26
I102
I185
tp30
a(I27
I101
I185
tp31
a(I28
I100
I185
tp32
a(I29
I100
I186
tp33
a(I30
I99
I186
tp34
a(I30
I98
I186
tp35
a(I31
I98
I186
tp36
a(I32
I97
I187
tp37
a(I33
I96
I187
tp38
a(I34
I96
I187
tp39
a(I35
I95
I187
tp40
a(I35
I94
I187
tp41
a(I36
I94
I188
tp42
a(I37
I93
I188
tp43
a(I38
I92
I188
tp44
a(I39
I92
I188
tp45
a(I40
I91
I188
tp46
a(I40
I90
I188
tp47
a(I41
I90
I189
tp48
a(I42
I89
I189
tp49
a(I43
I89
I189
tp50
a(I44
I88
I189
tp51
a(I45
I87
I189
tp52
a(I46
I86
I189
tp53
a(I47
I86
I190
tp54
a(I48
I85
I190
tp55
a(I49
I85
I190
tp56
a(I50
I84
I190
tp57
a(I51
I83
I190
tp58
a(I52
I83
I190
tp59
a(I53
I82
I190
tp60
a(I54
I82
I189
tp61
a(I55
I82
I189
tp62
a(I56
I83
I189
tp63
a(I57
I83
I189
tp64
a(I58
I84
I189
tp65
a(I59
I85
I189
tp66
a(I60
I86
I188
tp67
a(I60
I87
I188
tp68
a(I60
I88
I188
tp69
a(I61
I89
I188
tp70
a(I62
I90
I188
tp71
a(I62
I91
I188
tp72
a(I63
I92
I188
tp73
a(I63
I93
I188
tp74
a(I64
I94
I187
tp75
a(I64
I95
I187
tp76
a(I65
I96
I187
tp77
a(I65
I97
I187
tp78
a(I65
I98
I187
tp79
a(I65
I99
I187
tp80
a(I65
I100
I187
tp81
a(I65
I101
I187
tp82
a(I66
I102
I186
tp83
a(I66
I103
I186
tp84
a(I66
I104
I186
tp85
a(I67
I105
I186
tp86
a(I67
I106
I186
tp87
a(I67
I107
I186
tp88
a(I68
I108
I186
tp89
a(I68
I109
I186
tp90
a(I68
I110
I186
tp91
a(I69
I111
I185
tp92
a(I69
I112
I185
tp93
a(I69
I113
I185
tp94
a(I69
I114
I185
tp95
a(I70
I115
I185
tp96
a(I70
I116
I185
tp97
a(I70
I117
I185
tp98
a(I70
I118
I185
tp99
a(I70
I119
I185
tp100
a(I70
I120
I185
tp101
a(I70
I121
I185
tp102
a(I70
I122
I185
tp103
a(I70
I123
I185
tp104
a(I71
I124
I184
tp105
a(I71
I125
I184
tp106
a(I71
I126
I184
tp107
a(I71
I127
I184
tp108
a(I72
I128
I184
tp109
a(I72
I129
I184
tp110
a(I72
I130
I184
tp111
a(I72
I131
I184
tp112
a(I72
I132
I184
tp113
a(I73
I133
I184
tp114
a(I73
I134
I184
tp115
a(I73
I135
I184
tp116
a(I73
I136
I184
tp117
a(I73
I137
I184
tp118
a(I74
I138
I183
tp119
a(I74
I139
I183
tp120
a(I74
I140
I183
tp121
a(I74
I141
I183
tp122
a(I75
I142
I183
tp123
a(I75
I143
I183
tp124
a(I75
I144
I183
tp125
a(I75
I145
I183
tp126
a(I75
I146
I183
tp127
a(I75
I147
I183
tp128
a(I75
I148
I183
tp129
a(I75
I149
I183
tp130
a(I75
I150
I183
tp131
a(I75
I151
I183
tp132
a(I76
I152
I182
tp133
a(I76
I153
I182
tp134
a(I76
I154
I182
tp135
a(I76
I155
I182
tp136
a(I76
I156
I182
tp137
a(I77
I157
I182
tp138
a(I77
I158
I182
tp139
a(I77
I159
I182
tp140
a(I77
I160
I182
tp141
a(I77
I161
I182
tp142
a(I78
I162
I181
tp143
a(I78
I163
I181
tp144
a(I78
I164
I181
tp145
a(I78
I165
I181
tp146
a(I78
I166
I181
tp147
a(I79
I167
I181
tp148
a(I79
I168
I181
tp149
a(I79
I169
I181
tp150
a(I79
I170
I181
tp151
a(I80
I171
I180
tp152
a(I80
I172
I180
tp153
a(I80
I173
I180
tp154
a(I80
I174
I180
tp155
a(I80
I175
I180
tp156
a(I80
I176
I180
tp157
a(I80
I177
I180
tp158
a(I80
I178
I180
tp159
a(I80
I179
I180
tp160
a(I81
I180
I180
tp161
a(I81
I181
I180
tp162
a(I81
I182
I180
tp163
a(I81
I183
I180
tp164
a(I82
I184
I179
tp165
a(I82
I185
I179
tp166
a(I82
I186
I179
tp167
a(I82
I187
I179
tp168
a(I83
I188
I179
tp169
a(I83
I189
I179
tp170
a(I83
I190
I179
tp171
a(I83
I191
I179
tp172
a(I84
I192
I179
tp173
a(I84
I193
I179
tp174
a(I84
I194
I179
tp175
a(I84
I195
I179
tp176
a(I85
I196
I178
tp177
a(I85
I197
I178
tp178
a(I85
I198
I178
tp179
a(I85
I199
I178
tp180
a(I85
I200
I178
tp181
a(I85
I201
I178
tp182
a(I85
I202
I178
tp183
a(I86
I203
I178
tp184
a(I86
I204
I178
tp185
a(I86
I205
I178
tp186
a(I87
I206
I177
tp187
a(I87
I207
I177
tp188
a(I87
I208
I177
tp189
a(I88
I209
I177
tp190
a(I88
I210
I177
tp191
a(I88
I211
I177
tp192
a(I89
I212
I176
tp193
a(I89
I213
I176
tp194
a(I89
I214
I176
tp195
a(I90
I215
I176
tp196
a(I90
I216
I176
tp197
a(I90
I217
I176
tp198
a(I90
I218
I176
tp199
a(I90
I219
I176
tp200
a(I91
I220
I175
tp201
a(I92
I221
I175
tp202
a(I92
I222
I175
tp203
a(I92
I223
I175
tp204
a(I92
I224
I175
tp205
a(I92
I225
I175
tp206
a(I93
I226
I175
tp207
a(I93
I227
I175
tp208
a(I94
I228
I175
tp209
a(I94
I229
I175
tp210
a(I95
I230
I174
tp211
a(I95
I231
I174
tp212
a(I95
I232
I174
tp213
a(I95
I233
I174
tp214
a(I95
I234
I174
tp215
a(I96
I235
I174
tp216
a(I96
I236
I174
tp217
a(I97
I237
I174
tp218
a(I98
I238
I175
tp219
a(I98
I239
I175
tp220
a(I99
I240
I175
tp221
a(I99
I241
I175
tp222
a(I100
I242
I176
tp223
a(I100
I243
I176
tp224
a(I100
I244
I176
tp225
a(I100
I245
I176
tp226
a(I100
I245
I177
tp227
a(I101
I246
I178
tp228
a(I101
I246
I178
tp229
a(I101
I246
I179
tp230
a(I101
I246
I180
tp231
a(I101
I246
I181
tp232
a(I102
I247
I182
tp233
a(I102
I247
I182
tp234
a(I102
I248
I182
tp235
a(I102
I248
I183
tp236
a(I102
I247
I184
tp237
a(I102
I248
I185
tp238
a(I103
I249
I186
tp239
a(I103
I249
I186
tp240
a(I103
I249
I187
tp241
a(I103
I249
I188
tp242
a(I103
I249
I189
tp243
a(I103
I249
I190
tp244
a(I104
I250
I191
tp245
a(I104
I250
I191
tp246
a(I104
I250
I192
tp247
a(I104
I250
I193
tp248
a(I104
I250
I194
tp249
a(I105
I251
I195
tp250
a(I105
I251
I195
tp251
a(I105
I252
I195
tp252
a(I105
I253
I195
tp253
a(I105
I253
I196
tp254
a(I105
I252
I197
tp255
a(I105
I253
I198
tp256
a(I106
I254
I199
tp257
a(I106
I254
I199
tp258
a(I106
I254
I200
tp259
a(I106
I254
I201
tp260
a(I107
I255
I202
tp261
a(I107
I255
I202
tp262
a(I107
I256
I202
tp263
a(I107
I256
I203
tp264
a(I107
I256
I204
tp265
a(I108
I257
I205
tp266
a(I108
I257
I205
tp267
a(I108
I257
I206
tp268
a(I109
I258
I207
tp269
a(I109
I258
I207
tp270
a(I109
I258
I208
tp271
a(I109
I258
I209
tp272
a(I110
I259
I210
tp273
a(I110
I259
I210
tp274
a(I110
I260
I210
tp275
a(I110
I260
I211
tp276
a(I111
I261
I212
tp277
a(I111
I261
I212
tp278
a(I111
I261
I213
tp279
a(I112
I262
I214
tp280
a(I112
I262
I214
tp281
a(I112
I262
I215
tp282
a(I112
I262
I216
tp283
a(I113
I263
I217
tp284
a(I113
I263
I217
tp285
a(I113
I263
I218
tp286
a(I114
I264
I219
tp287
a(I114
I264
I219
tp288
a(I114
I264
I220
tp289
a(I115
I265
I221
tp290
a(I115
I265
I221
tp291
a(I115
I265
I222
tp292
a(I116
I266
I223
tp293
a(I116
I266
I223
tp294
a(I116
I266
I224
tp295
a(I117
I267
I225
tp296
a(I117
I267
I225
tp297
a(I118
I268
I226
tp298
a(I118
I268
I227
tp299
a(I119
I268
I228
tp300
a(I119
I268
I228
tp301
a(I119
I268
I229
tp302
a(I120
I269
I230
tp303
a(I120
I269
I230
tp304
a(I120
I270
I230
tp305
a(I120
I269
I231
tp306
a(I121
I270
I232
tp307
a(I121
I270
I232
tp308
a(I122
I271
I233
tp309
a(I122
I271
I234
tp310
a(I123
I271
I235
tp311
a(I123
I271
I235
tp312
a(I123
I271
I236
tp313
a(I124
I272
I237
tp314
a(I124
I272
I237
tp315
a(I125
I273
I238
tp316
a(I125
I273
I239
tp317
a(I126
I273
I240
tp318
a(I126
I273
I240
tp319
a(I127
I274
I241
tp320
a(I127
I274
I242
tp321
a(I128
I274
I243
tp322
a(I128
I274
I243
tp323
a(I129
I274
I244
tp324
a(I129
I274
I245
tp325
a(I130
I275
I246
tp326
a(I130
I275
I246
tp327
a(I131
I275
I247
tp328
a(I132
I276
I248
tp329
a(I132
I276
I249
tp330
a(I132
I276
I250
tp331
a(I133
I276
I251
tp332
a(I133
I276
I251
tp333
a(I134
I276
I252
tp334
a(I135
I276
I253
tp335
a(I136
I277
I254
tp336
a(I137
I277
I255
tp337
a(I138
I277
I256
tp338
a(I138
I277
I257
tp339
a(I139
I278
I258
tp340
a(I139
I278
I258
tp341
a(I140
I278
I259
tp342
a(I141
I278
I260
tp343
a(I141
I278
I261
tp344
a(I142
I278
I262
tp345
a(I142
I278
I262
tp346
a(I143
I278
I263
tp347
a(I144
I278
I264
tp348
a(I145
I278
I265
tp349
a(I146
I278
I266
tp350
a(I146
I278
I267
tp351
a(I147
I278
I268
tp352
a(I147
I278
I268
tp353
a(I148
I278
I269
tp354
a(I149
I277
I270
tp355
a(I150
I277
I271
tp356
a(I151
I277
I272
tp357
a(I152
I277
I273
tp358
a(I152
I277
I274
tp359
a(I153
I277
I275
tp360
a(I153
I277
I275
tp361
a(I154
I277
I276
tp362
a(I155
I276
I277
tp363
a(I156
I276
I278
tp364
a(I157
I276
I279
tp365
a(I158
I276
I280
tp366
a(I159
I276
I281
tp367
a(I160
I275
I282
tp368
a(I161
I275
I283
tp369
a(I162
I275
I284
tp370
a(I163
I274
I285
tp371
a(I164
I274
I286
tp372
a(I165
I273
I287
tp373
a(I166
I273
I288
tp374
a(I167
I273
I289
tp375
a(I168
I272
I290
tp376
a(I169
I272
I291
tp377
a(I170
I271
I291
tp378
a(I171
I270
I292
tp379
a(I172
I269
I293
tp380
a(I173
I269
I294
tp381
a(I174
I268
I294
tp382
a(I175
I267
I295
tp383
a(I175
I266
I295
tp384
a(I176
I265
I296
tp385
a(I177
I264
I296
tp386
a(I178
I263
I297
tp387
a(I179
I262
I298
tp388
a(I180
I261
I298
tp389
a(I180
I260
I298
tp390
a(I180
I259
I298
tp391
a(I181
I258
I299
tp392
a(I182
I257
I300
tp393
a(I182
I256
I300
tp394
a(I183
I255
I300
tp395
a(I184
I254
I301
tp396
a(I185
I253
I301
tp397
a(I185
I252
I301
tp398
a(I185
I251
I301
tp399
a(I185
I250
I301
tp400
a(I186
I249
I302
tp401
a(I186
I248
I302
tp402
a(I187
I247
I302
tp403
a(I187
I246
I302
tp404
a(I187
I245
I302
tp405
a(I188
I244
I303
tp406
a(I188
I243
I303
tp407
a(I188
I242
I303
tp408
a(I189
I241
I303
tp409
a(I189
I240
I303
tp410
a(I189
I239
I303
tp411
a(I190
I238
I304
tp412
a(I190
I237
I304
tp413
a(I190
I236
I304
tp414
a(I190
I235
I304
tp415
a(I190
I234
I304
tp416
a(I190
I233
I304
tp417
a(I190
I232
I304
tp418
a(I190
I231
I304
tp419
a(I190
I230
I304
tp420
a(I191
I229
I304
tp421
a(I191
I228
I304
tp422
a(I191
I227
I304
tp423
a(I191
I226
I304
tp424
a(I191
I225
I304
tp425
a(I191
I224
I304
tp426
a(I191
I223
I304
tp427
a(I192
I222
I305
tp428
a(I192
I221
I305
tp429
a(I192
I220
I305
tp430
a(I192
I219
I305
tp431
a(I192
I218
I305
tp432
a(I192
I217
I305
tp433
a(I192
I216
I305
tp434
a(I192
I215
I305
tp435
a(I192
I214
I305
tp436
a(I192
I213
I305
tp437
a(I192
I212
I305
tp438
a(I192
I211
I305
tp439
a(I193
I210
I305
tp440
a(I193
I209
I305
tp441
a(I193
I208
I305
tp442
a(I193
I207
I305
tp443
a(I193
I206
I305
tp444
a(I193
I205
I305
tp445
a(I193
I204
I305
tp446
a(I193
I203
I305
tp447
a(I193
I202
I305
tp448
a(I193
I201
I305
tp449
a(I193
I200
I305
tp450
a(I193
I199
I305
tp451
a(I193
I198
I305
tp452
a(I193
I197
I305
tp453
a(I193
I196
I305
tp454
a(I193
I195
I305
tp455
a(I193
I194
I305
tp456
a(I193
I193
I305
tp457
a(I192
I192
I305
tp458
a(I192
I191
I305
tp459
a(I192
I190
I305
tp460
a(I192
I189
I305
tp461
a(I192
I188
I305
tp462
a(I192
I187
I305
tp463
a(I192
I186
I305
tp464
a(I192
I185
I305
tp465
a(I192
I184
I305
tp466
a(I192
I183
I305
tp467
a(I192
I182
I305
tp468
a(I192
I181
I305
tp469
a(I192
I180
I305
tp470
a(I192
I179
I305
tp471
a(I191
I178
I304
tp472
a(I191
I177
I304
tp473
a(I191
I176
I304
tp474
a(I191
I175
I304
tp475
a(I191
I174
I304
tp476
a(I191
I173
I304
tp477
a(I191
I172
I304
tp478
a(I191
I171
I304
tp479
a(I191
I170
I304
tp480
a(I190
I169
I304
tp481
a(I190
I168
I304
tp482
a(I190
I167
I304
tp483
a(I190
I166
I304
tp484
a(I190
I165
I304
tp485
a(I190
I164
I304
tp486
a(I190
I163
I304
tp487
a(I190
I162
I304
tp488
a(I190
I161
I304
tp489
a(I190
I160
I304
tp490
a(I190
I159
I304
tp491
a(I190
I158
I304
tp492
a(I190
I157
I304
tp493
a(I189
I156
I303
tp494
a(I189
I155
I303
tp495
a(I189
I154
I303
tp496
a(I189
I153
I303
tp497
a(I189
I152
I303
tp498
a(I189
I151
I303
tp499
a(I188
I150
I303
tp500
a(I188
I149
I303
tp501
a(I188
I148
I303
tp502
a(I188
I147
I303
tp503
a(I188
I146
I303
tp504
a(I187
I145
I302
tp505
a(I187
I144
I302
tp506
a(I187
I143
I302
tp507
a(I187
I142
I302
tp508
a(I187
I141
I302
tp509
a(I186
I140
I302
tp510
a(I186
I139
I302
tp511
a(I186
I138
I302
tp512
a(I186
I137
I302
tp513
a(I185
I136
I301
tp514
a(I185
I135
I301
tp515
a(I185
I134
I301
tp516
a(I185
I133
I301
tp517
a(I185
I132
I301
tp518
a(I185
I131
I301
tp519
a(I185
I130
I301
tp520
a(I185
I129
I301
tp521
a(I184
I128
I301
tp522
a(I184
I127
I301
tp523
a(I184
I126
I301
tp524
a(I184
I125
I301
tp525
a(I183
I124
I300
tp526
a(I183
I123
I300
tp527
a(I183
I122
I300
tp528
a(I182
I121
I300
tp529
a(I182
I120
I300
tp530
a(I182
I119
I300
tp531
a(I182
I118
I300
tp532
a(I181
I117
I299
tp533
a(I181
I116
I299
tp534
a(I181
I115
I299
tp535
a(I180
I114
I298
tp536
a(I180
I113
I298
tp537
a(I180
I112
I298
tp538
a(I180
I111
I298
tp539
a(I180
I110
I298
tp540
a(I180
I109
I298
tp541
a(I179
I108
I298
tp542
a(I179
I107
I298
tp543
a(I179
I106
I298
tp544
a(I178
I105
I297
tp545
a(I178
I104
I297
tp546
a(I178
I103
I297
tp547
a(I177
I102
I296
tp548
a(I177
I101
I296
tp549
a(I177
I100
I296
tp550
a(I176
I99
I296
tp551
a(I176
I98
I296
tp552
a(I176
I97
I296
tp553
a(I175
I96
I295
tp554
a(I175
I95
I295
tp555
a(I175
I94
I295
tp556
a(I175
I93
I295
tp557
a(I175
I92
I295
tp558
a(I174
I91
I294
tp559
a(I174
I90
I294
tp560
a(I174
I89
I294
tp561
a(I173
I88
I294
tp562
a(I173
I87
I294
tp563
a(I172
I86
I293
tp564
a(I172
I85
I293
tp565
a(I171
I84
I292
tp566
a(I171
I83
I292
tp567
a(I171
I82
I292
tp568
a(I170
I81
I291
tp569
a(I170
I80
I291
tp570
a(I170
I79
I291
tp571
a(I170
I78
I291
tp572
a(I169
I77
I291
tp573
a(I169
I76
I291
tp574
a(I168
I75
I290
tp575
a(I168
I74
I290
tp576
a(I168
I73
I290
tp577
a(I167
I72
I289
tp578
a(I167
I71
I289
tp579
a(I166
I70
I288
tp580
a(I166
I69
I288
tp581
a(I165
I68
I287
tp582
a(I165
I67
I287
tp583
a(I165
I66
I287
tp584
a(I164
I65
I286
tp585
a(I164
I64
I286
tp586
a(I163
I63
I285
tp587
a(I163
I62
I285
tp588
a(I162
I61
I284
tp589
a(I162
I60
I284
tp590
a(I161
I59
I283
tp591
a(I161
I58
I283
tp592
a(I160
I57
I284
tp593
a(I160
I56
I284
tp594
a(I160
I55
I284
tp595
a(I160
I55
I284
tp596
a(I160
I56
I284
tp597
a(I160
I57
I284
tp598
a(I161
I58
I283
tp599
a(I160
I57
I282
tp600
a(I160
I56
I282
tp601
a(I160
I55
I282
tp602
a(I159
I54
I281
tp603
a(I159
I54
I281
tp604
a(I159
I53
I281
tp605
a(I158
I52
I280
tp606
a(I157
I51
I279
tp607
a(I157
I50
I279
tp608
a(I156
I49
I278
tp609
a(I155
I48
I277
tp610
a(I155
I47
I277
tp611
a(I155
I46
I277
tp612
a(I154
I45
I276
tp613
a(I153
I44
I275
tp614
a(I153
I43
I275
tp615
a(I152
I42
I274
tp616
a(I152
I42
I273
tp617
a(I151
I41
I272
tp618
a(I151
I41
I272
tp619
a(I150
I40
I271
tp620
a(I150
I39
I271
tp621
a(I149
I38
I270
tp622
a(I149
I37
I270
tp623
a(I148
I36
I269
tp624
a(I147
I35
I268
tp625
a(I146
I34
I267
tp626
a(I146
I34
I266
tp627
a(I145
I33
I265
tp628
a(I145
I33
I265
tp629
a(I144
I32
I264
tp630
a(I143
I31
I263
tp631
a(I142
I30
I262
tp632
a(I141
I29
I261
tp633
a(I141
I29
I260
tp634
a(I140
I28
I259
tp635
a(I140
I28
I259
tp636
a(I139
I27
I258
tp637
a(I138
I26
I257
tp638
a(I138
I26
I256
tp639
a(I137
I26
I255
tp640
a(I137
I26
I255
tp641
a(I136
I25
I254
tp642
a(I135
I25
I253
tp643
a(I134
I24
I252
tp644
a(I133
I23
I251
tp645
a(I132
I23
I250
tp646
a(I132
I23
I249
tp647
a(I132
I23
I248
tp648
a(I131
I23
I247
tp649
a(I131
I23
I247
tp650
a(I130
I22
I246
tp651
a(I129
I22
I245
tp652
a(I129
I22
I244
tp653
a(I128
I21
I243
tp654
a(I128
I21
I243
tp655
a(I127
I21
I242
tp656
a(I127
I21
I241
tp657
a(I126
I21
I240
tp658
a(I126
I21
I240
tp659
a(I125
I21
I239
tp660
a(I125
I21
I238
tp661
a(I124
I20
I237
tp662
a(I124
I20
I237
tp663
a(I123
I20
I236
tp664
a(I123
I20
I235
tp665
a(I122
I20
I234
tp666
a(I122
I20
I234
tp667
a(I122
I20
I233
tp668
a(I121
I20
I232
tp669
a(I121
I20
I232
tp670
a(I120
I20
I231
tp671
a(I120
I20
I230
tp672
a(I119
I20
I229
tp673
a(I119
I20
I229
tp674
a(I119
I20
I228
tp675
a(I118
I20
I227
tp676
a(I118
I20
I227
tp677
a(I118
I20
I226
tp678
a(I117
I20
I225
tp679
a(I117
I20
I225
tp680
a(I116
I20
I224
tp681
a(I116
I20
I223
tp682
a(I115
I20
I222
tp683
a(I115
I20
I222
tp684
a(I115
I20
I221
tp685
a(I114
I21
I220
tp686
a(I114
I21
I220
tp687
a(I114
I21
I219
tp688
a(I113
I21
I218
tp689
a(I113
I21
I218
tp690
a(I113
I21
I217
tp691
a(I112
I21
I216
tp692
a(I112
I21
I216
tp693
a(I112
I21
I215
tp694
a(I112
I21
I214
tp695
a(I111
I21
I213
tp696
a(I111
I21
I213
tp697
a(I111
I21
I212
tp698
a(I110
I22
I211
tp699
a(I110
I22
I211
tp700
a(I110
I22
I210
tp701
a(I109
I22
I209
tp702
a(I109
I22
I209
tp703
a(I109
I22
I208
tp704
a(I109
I22
I207
tp705
a(I108
I23
I206
tp706
a(I108
I23
I206
tp707
a(I108
I23
I205
tp708
a(I107
I23
I204
tp709
a(I107
I23
I204
tp710
a(I107
I23
I203
tp711
a(I107
I23
I202
tp712
a(I106
I24
I201
tp713
a(I106
I24
I201
tp714
a(I106
I24
I200
tp715
a(I106
I24
I199
tp716
a(I105
I24
I198
tp717
a(I105
I24
I198
tp718
a(I105
I24
I197
tp719
a(I105
I24
I196
tp720
a(I105
I24
I195
tp721
a(I104
I25
I194
tp722
a(I104
I25
I194
tp723
a(I104
I25
I193
tp724
a(I104
I25
I192
tp725
a(I104
I25
I191
tp726
a(I103
I26
I190
tp727
a(I103
I26
I190
tp728
a(I103
I26
I189
tp729
a(I103
I26
I188
tp730
a(I103
I26
I187
tp731
a(I103
I26
I186
tp732
a(I102
I26
I185
tp733
a(I102
I26
I185
tp734
a(I102
I26
I184
tp735
a(I102
I26
I183
tp736
a(I102
I26
I182
tp737
a(I101
I27
I181
tp738
a(I101
I27
I181
tp739
a(I101
I27
I180
tp740
a(I101
I27
I179
tp741
a(I101
I27
I178
tp742
a(I100
I27
I177
tp743
a(I100
I27
I177
tp744
a(I100
I27
I176
tp745
a(I99
I28
I175
tp746
a(I99
I28
I175
tp747
a(I98
I29
I175
tp748
a(I97
I30
I174
tp749
a(I96
I30
I174
tp750
a(I95
I30
I174
tp751
a(I94
I31
I175
tp752
a(I93
I32
I175
tp753
a(I92
I32
I175
tp754
a(I91
I32
I175
tp755
a(I90
I32
I176
tp756
a(I89
I33
I176
tp757
a(I88
I33
I177
tp758
a(I87
I33
I177
tp759
a(I86
I33
I178
tp760
a(I85
I33
I178
tp761
a(I84
I32
I179
tp762
a(I83
I32
I179
tp763
a(I82
I32
I179
tp764
a(I81
I31
I180
tp765
a(I80
I31
I180
tp766
a(I79
I30
I181
tp767
a(I78
I30
I181
tp768
a(I77
I29
I182
tp769
a(I76
I29
I182
tp770
a(I75
I28
I183
tp771
a(I74
I27
I183
tp772
a(I73
I26
I184
tp773
a(I72
I26
I184
tp774
a(I71
I25
I184
tp775
a(I70
I24
I185
tp776
a(I69
I23
I185
tp777
a(I68
I23
I186
tp778
a(I67
I22
I186
tp779
a(I66
I22
I186
tp780
a(I65
I21
I187
tp781
a(I64
I20
I187
tp782
a(I63
I20
I188
tp783
a(I62
I19
I188
tp784
a(I61
I19
I188
tp785
a(I60
I18
I188
tp786
a(I59
I18
I189
tp787
a(I58
I17
I189
tp788
a(I57
I17
I189
tp789
a(I56
I16
I189
tp790
a(I55
I16
I189
tp791
a(I54
I15
I189
tp792
a(I53
I15
I190
tp793
a(I52
I15
I190
tp794
a(I51
I14
I190
tp795
a(I50
I14
I190
tp796
a(I49
I14
I190
tp797
a(I48
I13
I190
tp798
a(I47
I13
I190
tp799
a(I46
I13
I189
tp800
a(I45
I12
I189
tp801
a(I44
I12
I189
tp802
a(I43
I12
I189
tp803
a(I42
I11
I189
tp804
a(I41
I11
I189
tp805
a(I40
I11
I188
tp806
a(I39
I10
I188
tp807
a(I38
I10
I188
tp808
a(I37
I10
I188
tp809
a(I36
I10
I188
tp810
a(I35
I10
I187
tp811
a(I34
I9
I187
tp812
a(I33
I9
I187
tp813
a(I32
I9
I187
tp814
a(I31
I9
I186
tp815
a(I30
I8
I186
tp816
a(I29
I8
I186
tp817
a(I28
I8
I185
tp818
a(I27
I8
I185
tp819
a(I26
I8
I185
tp820
a(I25
I7
I184
tp821
a(I24
I7
I184
tp822
a(I23
I7
I184
tp823
a(I22
I7
I183
tp824
a(I21
I7
I183
tp825
a(I20
I7
I182
tp826
a(I19
I6
I182
tp827
a(I18
I6
I182
tp828
a(I17
I6
I181
tp829
a(I16
I6
I181
tp830
a(I15
I6
I180
tp831
a(I14
I6
I179
tp832
a(I13
I6
I179
tp833
a(I12
I5
I179
tp834
a(I11
I5
I178
tp835
a(I10
I5
I177
tp836
a(I9
I5
I177
tp837
a(I8
I5
I176
tp838
a(I7
I5
I176
tp839
a(I6
I5
I175
tp840
a(I5
I5
I174
tp841
a(I4
I5
I174
tp842
a(I3
I5
I173
tp843
a(I2
I6
I173
tp844
a(I3
I7
I173
tp845
a(I4
I7
I174
tp846
a(I5
I8
I174
tp847
a(I6
I9
I175
tp848
a(I7
I9
I176
tp849
a(I8
I10
I176
tp850
a(I9
I10
I177
tp851
a(I10
I11
I177
tp852
a(I11
I12
I178
tp853
a(I12
I12
I179
tp854
a(I13
I13
I179
tp855
a(I14
I13
I179
tp856
a(I15
I14
I180
tp857
a(I16
I15
I181
tp858
a(I17
I15
I181
tp859
a(I18
I16
I182
tp860
a(I19
I17
I182
tp861
a(I20
I18
I182
tp862
a(I21
I18
I183
tp863
a(I22
I19
I183
tp864
a(I23
I19
I184
tp865
a(I24
I20
I184
tp866
a(I25
I21
I184
tp867
a(I26
I22
I185
tp868
a(I27
I22
I185
tp869
a(I28
I23
I185
tp870
a(I29
I23
I186
tp871
a(I30
I24
I186
tp872
a(I30
I25
I186
tp873
a(I31
I25
I186
tp874
a(I32
I26
I187
tp875
a(I33
I26
I187
tp876
a(I34
I27
I187
tp877
a(I35
I28
I187
tp878
a(I36
I29
I188
tp879
a(I37
I30
I188
tp880
a(I38
I30
I188
tp881
a(I39
I31
I188
tp882
a(I40
I32
I188
tp883
a(I41
I33
I189
tp884
a(I42
I34
I189
tp885
a(I43
I34
I189
tp886
a(I44
I35
I189
tp887
a(I45
I36
I189
tp888
a(I46
I37
I189
tp889
a(I47
I38
I190
tp890
a(I48
I38
I190
tp891
a(I49
I39
I190
tp892
a(I50
I40
I190
tp893
a(I50
I41
I190
tp894
a(I51
I41
I190
tp895
a(I52
I42
I190
tp896
a(I53
I43
I190
tp897
a(I54
I43
I189
tp898
a(I55
I44
I189
tp899
a(I55
I45
I189
tp900
a(I56
I46
I189
tp901
a(I57
I47
I189
tp902
a(I58
I47
I189
tp903
a(I59
I48
I189
tp904
a(I60
I49
I188
tp905
a(I60
I50
I188
tp906
a(I61
I51
I188
tp907
a(I62
I51
I188
tp908
a(I63
I52
I188
tp909
a(I64
I53
I187
tp910
a(I65
I54
I187
tp911
a(I65
I55
I187
tp912
a(I66
I56
I186
tp913
a(I67
I57
I186
tp914
a(I68
I57
I186
tp915
a(I69
I58
I185
tp916
a(I70
I59
I185
tp917
a(I70
I60
I185
tp918
a(I71
I61
I184
tp919
a(I72
I62
I184
tp920
a(I73
I63
I184
tp921
a(I74
I64
I183
tp922
a(I75
I65
I183
tp923
a(I75
I66
I183
tp924
a(I76
I67
I182
tp925
a(I77
I68
I182
tp926
a(I78
I69
I181
tp927
a(I79
I70
I181
tp928
a(I80
I71
I180
tp929
a(I80
I72
I180
tp930
a(I81
I73
I180
tp931
a(I82
I74
I179
tp932
a(I82
I75
I179
tp933
a(I83
I76
I179
tp934
a(I84
I77
I179
tp935
a(I85
I78
I178
tp936
a(I85
I79
I178
tp937
a(I86
I80
I178
tp938
a(I86
I81
I178
tp939
a(I87
I82
I177
tp940
a(I88
I83
I177
tp941
a(I89
I84
I176
tp942
a(I90
I85
I176
tp943
a(I90
I86
I176
tp944
a(I90
I87
I176
tp945
a(I91
I88
I175
tp946
a(I91
I89
I175
tp947
a(I92
I90
I175
tp948
a(I93
I91
I175
tp949
a(I93
I92
I175
tp950
a(I94
I93
I175
tp951
a(I95
I94
I174
tp952
a(I95
I95
I174
tp953
a(I95
I96
I174
tp954
a(I96
I97
I174
tp955
a(I96
I98
I174
tp956
a(I97
I99
I174
tp957
a(I97
I100
I174
tp958
a(I97
I101
I174
tp959
a(I98
I102
I175
tp960
a(I98
I103
I175
tp961
a(I99
I104
I175
tp962
a(I99
I105
I175
tp963
a(I100
I106
I176
tp964
a(I100
I107
I176
tp965
a(I100
I108
I176
tp966
a(I100
I109
I176
tp967
a(I100
I109
I177
tp968
a(I101
I110
I178
tp969
a(I101
I110
I178
tp970
a(I101
I111
I178
tp971
a(I101
I111
I179
tp972
a(I101
I110
I180
tp973
a(I101
I111
I181
tp974
a(I102
I112
I182
tp975
a(I102
I112
I182
tp976
a(I102
I113
I182
tp977
a(I102
I113
I183
tp978
a(I102
I112
I184
tp979
a(I102
I113
I185
tp980
a(I103
I114
I186
tp981
a(I103
I114
I186
tp982
a(I103
I115
I186
tp983
a(I103
I116
I186
tp984
a(I103
I116
I187
tp985
a(I103
I115
I188
tp986
a(I103
I115
I189
tp987
a(I103
I116
I190
tp988
a(I104
I117
I191
tp989
a(I104
I117
I191
tp990
a(I104
I118
I191
tp991
a(I104
I118
I192
tp992
a(I104
I117
I193
tp993
a(I104
I118
I194
tp994
a(I105
I119
I195
tp995
a(I105
I119
I195
tp996
a(I105
I120
I195
tp997
a(I105
I121
I195
tp998
a(I105
I122
I195
tp999
a(I105
I123
I195
tp1000
a(I105
I124
I195
tp1001
a(I105
I124
I196
tp1002
a(I105
I123
I197
tp1003
a(I105
I124
I198
tp1004
a(I106
I125
I199
tp1005
a(I106
I125
I199
tp1006
a(I106
I126
I199
tp1007
a(I106
I127
I199
tp1008
a(I106
I128
I199
tp1009
a(I106
I128
I200
tp1010
a(I106
I128
I201
tp1011
a(I107
I129
I202
tp1012
a(I107
I129
I202
tp1013
a(I107
I130
I202
tp1014
a(I107
I131
I202
tp1015
a(I107
I132
I202
tp1016
a(I107
I132
I203
tp1017
a(I107
I132
I204
tp1018
a(I108
I133
I205
tp1019
a(I108
I133
I205
tp1020
a(I108
I134
I205
tp1021
a(I108
I135
I205
tp1022
a(I108
I136
I205
tp1023
a(I108
I137
I205
tp1024
a(I108
I138
I205
tp1025
a(I108
I138
I206
tp1026
a(I109
I139
I207
tp1027
a(I109
I139
I207
tp1028
a(I109
I140
I207
tp1029
a(I109
I141
I207
tp1030
a(I109
I142
I207
tp1031
a(I109
I143
I207
tp1032
a(I109
I144
I207
tp1033
a(I109
I145
I207
tp1034
a(I109
I146
I207
tp1035
a(I109
I147
I207
tp1036
a(I109
I147
I208
tp1037
a(I109
I147
I209
tp1038
a(I110
I148
I210
tp1039
a(I110
I148
I210
tp1040
a(I110
I149
I210
tp1041
a(I110
I150
I210
tp1042
a(I110
I151
I210
tp1043
a(I110
I152
I210
tp1044
a(I110
I153
I210
tp1045
a(I110
I154
I210
tp1046
a(I110
I155
I210
tp1047
a(I110
I156
I210
tp1048
a(I110
I157
I210
tp1049
a(I110
I158
I210
tp1050
a(I110
I159
I210
tp1051
a(I110
I160
I210
tp1052
a(I110
I161
I210
tp1053
a(I110
I162
I210
tp1054
a(I110
I163
I210
tp1055
a(I109
I164
I209
tp1056
a(I109
I165
I209
tp1057
a(I109
I166
I209
tp1058
a(I109
I167
I209
tp1059
a(I109
I167
I208
tp1060
a(I109
I167
I207
tp1061
a(I108
I168
I206
tp1062
a(I108
I168
I206
tp1063
a(I108
I169
I206
tp1064
a(I108
I170
I206
tp1065
a(I108
I171
I206
tp1066
a(I108
I172
I206
tp1067
a(I108
I172
I205
tp1068
a(I107
I173
I204
tp1069
a(I107
I173
I204
tp1070
a(I107
I174
I204
tp1071
a(I107
I175
I204
tp1072
a(I107
I176
I204
tp1073
a(I107
I176
I203
tp1074
a(I107
I176
I202
tp1075
a(I106
I177
I201
tp1076
a(I106
I177
I201
tp1077
a(I106
I178
I201
tp1078
a(I106
I179
I201
tp1079
a(I106
I180
I201
tp1080
a(I106
I180
I200
tp1081
a(I106
I180
I199
tp1082
a(I105
I181
I198
tp1083
a(I105
I181
I198
tp1084
a(I105
I182
I198
tp1085
a(I105
I183
I198
tp1086
a(I105
I184
I198
tp1087
a(I105
I185
I198
tp1088
a(I105
I186
I198
tp1089
a(I105
I186
I197
tp1090
a(I105
I185
I196
tp1091
a(I105
I186
I195
tp1092
a(I104
I187
I194
tp1093
a(I104
I187
I194
tp1094
a(I104
I188
I194
tp1095
a(I104
I189
I194
tp1096
a(I104
I189
I193
tp1097
a(I104
I188
I192
tp1098
a(I104
I189
I191
tp1099
a(I103
I190
I190
tp1100
a(I103
I190
I190
tp1101
a(I103
I191
I190
tp1102
a(I103
I192
I190
tp1103
a(I103
I192
I189
tp1104
a(I103
I191
I188
tp1105
a(I103
I191
I187
tp1106
a(I103
I192
I186
tp1107
a(I102
I193
I185
tp1108
a(I102
I193
I185
tp1109
a(I102
I194
I185
tp1110
a(I102
I195
I185
tp1111
a(I102
I195
I184
tp1112
a(I102
I194
I183
tp1113
a(I102
I195
I182
tp1114
a(I101
I196
I181
tp1115
a(I101
I196
I181
tp1116
a(I101
I197
I181
tp1117
a(I101
I197
I180
tp1118
a(I101
I196
I179
tp1119
a(I101
I197
I178
tp1120
a(I100
I198
I177
tp1121
a(I100
I198
I177
tp1122
a(I100
I199
I177
tp1123
a(I100
I200
I177
tp1124
a(I100
I201
I177
tp1125
a(I100
I201
I176
tp1126
a(I99
I202
I175
tp1127
a(I99
I202
I175
tp1128
a(I99
I203
I175
tp1129
a(I98
I204
I175
tp1130
a(I98
I205
I175
tp1131
a(I97
I206
I174
tp1132
a(I97
I207
I174
tp1133
a(I96
I208
I174
tp1134
a(I96
I209
I174
tp1135
a(I95
I210
I174
tp1136
a(I95
I211
I174
tp1137
a(I95
I212
I174
tp1138
a(I94
I213
I175
tp1139
a(I94
I214
I175
tp1140
a(I93
I215
I175
tp1141
a(I93
I216
I175
tp1142
a(I92
I216
I175
tp1143
a(I92
I217
I175
tp1144
a(I92
I218
I175
tp1145
a(I92
I219
I175
tp1146
a(I91
I220
I175
tp1147
a(I90
I221
I176
tp1148
a(I90
I222
I176
tp1149
a(I90
I223
I176
tp1150
a(I89
I224
I176
tp1151
a(I88
I225
I177
tp1152
a(I87
I226
I177
tp1153
a(I86
I227
I178
tp1154
a(I86
I228
I178
tp1155
a(I85
I229
I178
tp1156
a(I85
I230
I178
tp1157
a(I84
I231
I179
tp1158
a(I83
I232
I179
tp1159
a(I82
I233
I179
tp1160
a(I81
I234
I180
tp1161
a(I80
I235
I180
tp1162
a(I80
I236
I180
tp1163
a(I79
I237
I181
tp1164
a(I78
I237
I181
tp1165
a(I77
I238
I182
tp1166
a(I76
I238
I182
tp1167
a(I75
I239
I183
tp1168
a(I75
I240
I183
tp1169
a(I74
I241
I183
tp1170
a(I73
I242
I184
tp1171
a(I72
I243
I184
tp1172
a(I71
I243
I184
tp1173
a(I70
I244
I185
tp1174
a(I70
I245
I185
tp1175
a(I69
I246
I185
tp1176
a(I68
I246
I186
tp1177
a(I67
I247
I186
tp1178
a(I66
I248
I186
tp1179
a(I65
I248
I187
tp1180
a(I65
I249
I187
tp1181
a(I64
I250
I187
tp1182
a(I63
I250
I188
tp1183
a(I62
I251
I188
tp1184
a(I61
I251
I188
tp1185
a(I60
I252
I188
tp1186
a(I59
I253
I189
tp1187
a(I58
I254
I189
tp1188
a(I57
I254
I189
tp1189
a(I56
I255
I189
tp1190
a(I55
I255
I189
tp1191
a(I54
I256
I189
tp1192
a(I53
I257
I190
tp1193
a(I52
I257
I190
tp1194
a(I51
I258
I190
tp1195
a(I50
I258
I190
tp1196
a(I49
I259
I190
tp1197
a(I48
I259
I190
tp1198
a(I47
I260
I190
tp1199
a(I46
I260
I189
tp1200
a(I45
I260
I189
tp1201
a(I44
I261
I189
tp1202
a(I43
I261
I189
tp1203
a(I42
I262
I189
tp1204
a(I41
I262
I189
tp1205
a(I40
I262
I188
tp1206
a(I39
I263
I188
tp1207
a(I38
I263
I188
tp1208
a(I37
I264
I188
tp1209
a(I36
I264
I188
tp1210
a(I35
I264
I187
tp1211
a(I34
I265
I187
tp1212
a(I33
I265
I187
tp1213
a(I32
I265
I187
tp1214
a(I31
I266
I186
tp1215
a(I30
I267
I186
tp1216
a(I29
I268
I186
tp1217
a(I30
I269
I186
tp1218
a(I31
I269
I186
tp1219
a(I32
I269
I187
tp1220
a(I33
I269
I187
tp1221
a(I34
I269
I187
tp1222
a(I35
I269
I187
tp1223
a(I36
I269
I188
tp1224
a(I37
I270
I188
tp1225
a(I38
I270
I188
tp1226
a(I39
I270
I188
tp1227
a(I40
I270
I188
tp1228
a(I41
I270
I189
tp1229
a(I42
I270
I189
tp1230
a(I43
I270
I189
tp1231
a(I44
I270
I189
tp1232
a(I45
I271
I189
tp1233
a(I46
I271
I189
tp1234
a(I47
I271
I190
tp1235
a(I48
I271
I190
tp1236
a(I49
I271
I190
tp1237
a(I50
I272
I190
tp1238
a(I51
I272
I190
tp1239
a(I52
I272
I190
tp1240
a(I53
I272
I190
tp1241
a(I54
I272
I189
tp1242
a(I55
I273
I189
tp1243
a(I56
I273
I189
tp1244
a(I57
I273
I189
tp1245
a(I58
I273
I189
tp1246
a(I59
I273
I189
tp1247
a(I60
I274
I188
tp1248
a(I61
I274
I188
tp1249
a(I62
I274
I188
tp1250
a(I63
I274
I188
tp1251
a(I64
I275
I187
tp1252
a(I65
I275
I187
tp1253
a(I66
I275
I186
tp1254
a(I67
I276
I186
tp1255
a(I68
I276
I186
tp1256
a(I69
I276
I185
tp1257
a(I70
I277
I185
tp1258
a(I71
I277
I184
tp1259
a(I72
I277
I184
tp1260
a(I73
I278
I184
tp1261
a(I74
I278
I183
tp1262
a(I75
I279
I183
tp1263
a(I76
I279
I182
tp1264
a(I77
I279
I182
tp1265
a(I78
I280
I181
tp1266
a(I79
I280
I181
tp1267
a(I80
I281
I180
tp1268
a(I81
I281
I180
tp1269
a(I82
I281
I179
tp1270
a(I83
I282
I179
tp1271
a(I84
I282
I179
tp1272
a(I85
I283
I178
tp1273
a(I86
I283
I178
tp1274
a(I87
I284
I177
tp1275
a(I88
I284
I177
tp1276
a(I89
I284
I176
tp1277
a(I90
I285
I176
tp1278
a(I91
I286
I175
tp1279
a(I92
I286
I175
tp1280
a(I93
I287
I175
tp1281
a(I94
I287
I175
tp1282
a(I95
I288
I174
tp1283
a(I96
I288
I174
tp1284
a(I97
I289
I174
tp1285
a(I98
I289
I175
tp1286
a(I99
I290
I175
tp1287
a(I100
I291
I176
tp1288
a(I100
I291
I177
tp1289
a(I101
I291
I178
tp1290
a(I101
I291
I178
tp1291
a(I101
I291
I179
tp1292
a(I101
I291
I180
tp1293
a(I101
I291
I181
tp1294
a(I102
I292
I182
tp1295
a(I102
I292
I182
tp1296
a(I102
I292
I183
tp1297
a(I102
I292
I184
tp1298
a(I102
I292
I185
tp1299
a(I103
I293
I186
tp1300
a(I103
I293
I186
tp1301
a(I103
I293
I187
tp1302
a(I103
I293
I188
tp1303
a(I103
I293
I189
tp1304
a(I103
I293
I190
tp1305
a(I104
I293
I191
tp1306
a(I104
I293
I191
tp1307
a(I104
I293
I192
tp1308
a(I104
I293
I193
tp1309
a(I104
I293
I194
tp1310
a(I105
I294
I195
tp1311
a(I105
I294
I195
tp1312
a(I105
I294
I196
tp1313
a(I105
I294
I197
tp1314
a(I105
I294
I198
tp1315
a(I106
I295
I199
tp1316
a(I106
I295
I199
tp1317
a(I106
I295
I200
tp1318
a(I106
I295
I201
tp1319
a(I107
I295
I202
tp1320
a(I107
I295
I202
tp1321
a(I107
I295
I203
tp1322
a(I107
I295
I204
tp1323
a(I108
I296
I205
tp1324
a(I108
I296
I205
tp1325
a(I108
I296
I206
tp1326
a(I109
I297
I207
tp1327
a(I109
I297
I207
tp1328
a(I109
I297
I208
tp1329
a(I109
I297
I209
tp1330
a(I110
I298
I210
tp1331
a(I110
I298
I210
tp1332
a(I110
I298
I211
tp1333
a(I111
I299
I212
tp1334
a(I111
I299
I212
tp1335
a(I111
I299
I213
tp1336
a(I112
I299
I214
tp1337
a(I112
I299
I214
tp1338
a(I112
I299
I215
tp1339
a(I112
I299
I216
tp1340
a(I113
I300
I217
tp1341
a(I113
I300
I217
tp1342
a(I113
I300
I218
tp1343
a(I114
I301
I219
tp1344
a(I114
I301
I219
tp1345
a(I114
I301
I220
tp1346
a(I115
I302
I221
tp1347
a(I115
I302
I221
tp1348
a(I115
I302
I222
tp1349
a(I116
I303
I223
tp1350
a(I116
I303
I223
tp1351
a(I116
I303
I224
tp1352
a(I117
I304
I225
tp1353
a(I117
I304
I225
tp1354
a(I118
I304
I226
tp1355
a(I118
I304
I227
tp1356
a(I119
I305
I228
tp1357
a(I119
I305
I228
tp1358
a(I119
I305
I229
tp1359
a(I120
I306
I230
tp1360
a(I120
I306
I230
tp1361
a(I120
I307
I230
tp1362
a(I120
I306
I231
tp1363
a(I121
I307
I232
tp1364
a(I121
I307
I232
tp1365
a(I122
I308
I233
tp1366
a(I122
I308
I234
tp1367
a(I123
I309
I235
tp1368
a(I123
I309
I235
tp1369
a(I123
I309
I236
tp1370
a(I124
I310
I237
tp1371
a(I124
I310
I237
tp1372
a(I125
I311
I238
tp1373
a(I125
I312
I238
tp1374
a(I125
I312
I239
tp1375
a(I126
I313
I240
tp1376
a(I126
I313
I240
tp1377
a(I127
I314
I241
tp1378
a(I127
I314
I242
tp1379
a(I128
I314
I243
tp1380
a(I128
I314
I243
tp1381
a(I129
I315
I244
tp1382
a(I129
I315
I245
tp1383
a(I130
I316
I246
tp1384
a(I130
I316
I246
tp1385
a(I130
I317
I246
tp1386
a(I131
I318
I247
tp1387
a(I132
I319
I248
tp1388
a(I132
I319
I249
tp1389
a(I132
I319
I250
tp1390
a(I133
I320
I251
tp1391
a(I133
I320
I251
tp1392
a(I134
I321
I252
tp1393
a(I135
I322
I253
tp1394
a(I135
I323
I253
tp1395
a(I136
I323
I254
tp1396
a(I137
I324
I255
tp1397
a(I138
I325
I256
tp1398
a(I138
I325
I257
tp1399
a(I139
I326
I258
tp1400
a(I139
I326
I258
tp1401
a(I140
I327
I259
tp1402
a(I141
I328
I260
tp1403
a(I141
I328
I261
tp1404
a(I142
I328
I262
tp1405
a(I142
I328
I262
tp1406
a(I143
I329
I263
tp1407
a(I144
I330
I264
tp1408
a(I145
I331
I265
tp1409
a(I146
I332
I266
tp1410
a(I146
I332
I267
tp1411
a(I147
I332
I268
tp1412
a(I147
I332
I268
tp1413
a(I148
I333
I269
tp1414
a(I149
I333
I270
tp1415
a(I150
I334
I271
tp1416
a(I151
I335
I272
tp1417
a(I152
I335
I273
tp1418
a(I152
I335
I274
tp1419
a(I153
I336
I275
tp1420
a(I153
I336
I275
tp1421
a(I154
I336
I276
tp1422
a(I155
I337
I277
tp1423
a(I156
I338
I278
tp1424
a(I157
I338
I279
tp1425
a(I158
I338
I280
tp1426
a(I159
I339
I281
tp1427
a(I160
I340
I282
tp1428
a(I161
I340
I283
tp1429
a(I162
I340
I284
tp1430
a(I163
I341
I285
tp1431
a(I164
I341
I286
tp1432
a(I165
I342
I287
tp1433
a(I166
I342
I288
tp1434
a(I167
I342
I289
tp1435
a(I168
I343
I290
tp1436
a(I169
I343
I291
tp1437
a(I170
I344
I291
tp1438
a(I171
I344
I292
tp1439
a(I172
I344
I293
tp1440
a(I173
I344
I294
tp1441
a(I174
I345
I294
tp1442
a(I175
I345
I295
tp1443
a(I176
I345
I296
tp1444
a(I177
I345
I296
tp1445
a(I178
I346
I297
tp1446
a(I179
I346
I298
tp1447
a(I180
I346
I298
tp1448
a(I181
I346
I299
tp1449
a(I182
I347
I300
tp1450
a(I183
I347
I300
tp1451
a(I184
I347
I301
tp1452
a(I185
I347
I301
tp1453
a(I186
I347
I302
tp1454
a(I187
I348
I302
tp1455
a(I188
I348
I303
tp1456
a(I189
I348
I303
tp1457
a(I190
I348
I304
tp1458
a(I191
I348
I304
tp1459
a(I192
I348
I305
tp1460
a(I193
I348
I305
tp1461
a(I194
I348
I306
tp1462
a(I195
I349
I306
tp1463
a(I196
I349
I306
tp1464
a(I197
I349
I307
tp1465
a(I198
I349
I307
tp1466
a(I199
I349
I308
tp1467
a(I200
I349
I308
tp1468
a(I201
I349
I308
tp1469
a(I202
I349
I309
tp1470
a(I203
I349
I309
tp1471
a(I204
I349
I309
tp1472
a(I205
I350
I310
tp1473
a(I206
I350
I310
tp1474
a(I207
I350
I310
tp1475
a(I208
I350
I310
tp1476
a(I209
I350
I310
tp1477
a(I210
I350
I311
tp1478
a(I211
I350
I311
tp1479
a(I212
I350
I311
tp1480
a(I213
I350
I311
tp1481
a(I214
I350
I311
tp1482
a(I215
I350
I311
tp1483
a(I216
I350
I311
tp1484
a(I217
I350
I312
tp1485
a(I218
I350
I312
tp1486
a(I219
I350
I312
tp1487
a(I220
I350
I312
tp1488
a(I221
I350
I312
tp1489
a(I222
I350
I313
tp1490
a(I223
I350
I313
tp1491
a(I224
I350
I313
tp1492
a(I225
I350
I313
tp1493
a(I226
I350
I313
tp1494
a(I227
I350
I313
tp1495
a(I228
I350
I312
tp1496
a(I229
I350
I312
tp1497
a(I230
I350
I312
tp1498
a(I231
I351
I312
tp1499
a(I232
I351
I311
tp1500
a(I233
I351
I311
tp1501
a(I234
I351
I311
tp1502
a(I235
I351
I311
tp1503
a(I236
I351
I311
tp1504
a(I237
I352
I311
tp1505
a(I238
I352
I311
tp1506
a(I239
I352
I311
tp1507
a(I240
I353
I310
tp1508
a(I241
I353
I310
tp1509
a(I242
I354
I309
tp1510
a(I242
I355
I309
tp1511
a(I243
I356
I309
tp1512
a(I243
I357
I309
tp1513
a(I243
I358
I309
tp1514
a(I243
I359
I309
tp1515
a(I243
I360
I309
tp1516
a(I242
I361
I309
tp1517
a(I242
I362
I309
tp1518
a(I241
I363
I310
tp1519
a(I241
I364
I310
tp1520
a(I240
I365
I310
tp1521
a(I240
I366
I310
tp1522
a(I240
I367
I310
tp1523
a(I240
I368
I310
tp1524
a(I239
I369
I311
tp1525
a(I239
I370
I311
tp1526
a(I238
I371
I311
tp1527
a(I237
I372
I311
tp1528
a(I237
I373
I311
tp1529
a(I236
I374
I311
tp1530
a(I235
I375
I311
tp1531
a(I235
I376
I311
tp1532
a(I235
I377
I311
tp1533
a(I234
I378
I311
tp1534
a(I234
I379
I311
tp1535
a(I233
I380
I311
tp1536
a(I232
I381
I311
tp1537
a(I231
I382
I312
tp1538
a(I231
I383
I312
tp1539
a(I230
I384
I312
tp1540
a(I230
I385
I312
tp1541
a(I229
I386
I312
tp1542
a(I228
I387
I312
tp1543
a(I228
I388
I312
tp1544
a(I227
I389
I313
tp1545
a(I226
I390
I313
tp1546
a(I225
I391
I313
tp1547
a(I225
I392
I313
tp1548
a(I225
I393
I313
tp1549
a(I224
I394
I313
tp1550
a(I223
I395
I313
tp1551
a(I222
I396
I313
tp1552
a(I221
I397
I312
tp1553
a(I220
I398
I312
tp1554
a(I220
I399
I312
tp1555
a(I220
I400
I312
tp1556
a(I219
I401
I312
tp1557
a(I218
I402
I312
tp1558
a(I217
I403
I312
tp1559
a(I216
I404
I311
tp1560
a(I215
I405
I311
tp1561
a(I215
I406
I311
tp1562
a(I215
I407
I311
tp1563
a(I214
I408
I311
tp1564
a(I213
I409
I311
tp1565
a(I212
I410
I311
tp1566
a(I211
I411
I311
tp1567
a(I210
I412
I311
tp1568
a(I210
I413
I311
tp1569
a(I209
I414
I310
tp1570
a(I208
I415
I310
tp1571
a(I208
I416
I310
tp1572
a(I207
I417
I310
tp1573
a(I206
I418
I310
tp1574
a(I205
I419
I310
tp1575
a(I205
I420
I310
tp1576
a(I204
I421
I309
tp1577
a(I203
I422
I309
tp1578
a(I202
I423
I309
tp1579
a(I201
I424
I308
tp1580
a(I200
I425
I308
tp1581
a(I200
I426
I308
tp1582
a(I199
I427
I308
tp1583
a(I198
I428
I307
tp1584
a(I197
I428
I307
tp1585
a(I196
I428
I306
tp1586
a(I195
I427
I306
tp1587
a(I195
I426
I306
tp1588
a(I194
I425
I306
tp1589
a(I193
I424
I305
tp1590
a(I193
I423
I305
tp1591
a(I193
I422
I305
tp1592
a(I192
I421
I305
tp1593
a(I192
I420
I305
tp1594
a(I192
I419
I305
tp1595
a(I191
I418
I304
tp1596
a(I191
I417
I304
tp1597
a(I191
I416
I304
tp1598
a(I191
I415
I304
tp1599
a(I191
I414
I304
tp1600
a(I191
I413
I304
tp1601
a(I191
I412
I304
tp1602
a(I191
I411
I304
tp1603
a(I190
I410
I304
tp1604
a(I190
I409
I304
tp1605
a(I190
I408
I304
tp1606
a(I190
I407
I304
tp1607
a(I190
I406
I304
tp1608
a(I190
I405
I304
tp1609
a(I190
I404
I304
tp1610
a(I190
I403
I304
tp1611
a(I190
I402
I304
tp1612
a(I190
I401
I304
tp1613
a(I190
I400
I304
tp1614
a(I190
I399
I304
tp1615
a(I190
I398
I304
tp1616
a(I190
I397
I304
tp1617
a(I190
I396
I304
tp1618
a(I190
I395
I304
tp1619
a(I190
I394
I304
tp1620
a(I190
I393
I304
tp1621
a(I190
I392
I304
tp1622
a(I190
I391
I304
tp1623
a(I190
I390
I304
tp1624
a(I191
I389
I304
tp1625
a(I191
I388
I304
tp1626
a(I191
I387
I304
tp1627
a(I191
I386
I304
tp1628
a(I191
I385
I304
tp1629
a(I191
I384
I304
tp1630
a(I191
I383
I304
tp1631
a(I192
I382
I305
tp1632
a(I192
I381
I305
tp1633
a(I192
I380
I305
tp1634
a(I192
I379
I305
tp1635
a(I192
I378
I305
tp1636
a(I192
I377
I305
tp1637
a(I193
I376
I305
tp1638
a(I193
I375
I305
tp1639
a(I193
I374
I305
tp1640
a(I193
I373
I305
tp1641
a(I193
I372
I305
tp1642
a(I194
I371
I306
tp1643
a(I194
I370
I306
tp1644
a(I194
I369
I306
tp1645
a(I194
I368
I306
tp1646
a(I194
I367
I306
tp1647
a(I195
I366
I306
tp1648
a(I195
I365
I306
tp1649
a(I195
I364
I306
tp1650
a(I195
I363
I306
tp1651
a(I195
I362
I306
tp1652
a(I195
I361
I306
tp1653
a(I195
I360
I306
tp1654
a(I195
I359
I306
tp1655
a(I196
I358
I306
tp1656
a(I196
I357
I306
tp1657
a(I196
I356
I306
tp1658
a(I197
I355
I307
tp1659
a(I197
I354
I307
tp1660
a(I197
I353
I307
tp1661
a(I197
I352
I307
tp1662
a(I198
I351
I307
tp1663
a(I199
I350
I308
tp1664
a(I199
I349
I308
tp1665
a(I199
I348
I308
tp1666
a(I199
I347
I308
tp1667
a(I199
I346
I308
tp1668
a(I200
I345
I308
tp1669
a(I200
I344
I308
tp1670
a(I200
I343
I308
tp1671
a(I200
I342
I308
tp1672
a(I200
I341
I308
tp1673
a(I200
I340
I308
tp1674
a(I201
I339
I308
tp1675
a(I201
I338
I308
tp1676
a(I202
I337
I309
tp1677
a(I202
I336
I309
tp1678
a(I202
I335
I309
tp1679
a(I203
I334
I309
tp1680
a(I203
I333
I309
tp1681
a(I204
I332
I309
tp1682
a(I204
I331
I309
tp1683
a(I204
I330
I309
tp1684
a(I205
I329
I310
tp1685
a(I205
I328
I310
tp1686
a(I205
I327
I310
tp1687
a(I205
I326
I310
tp1688
a(I206
I325
I310
tp1689
a(I206
I324
I310
tp1690
a(I207
I323
I310
tp1691
a(I207
I322
I310
tp1692
a(I208
I321
I310
tp1693
a(I208
I320
I310
tp1694
a(I209
I319
I310
tp1695
a(I209
I318
I310
tp1696
a(I210
I317
I311
tp1697
a(I210
I316
I311
tp1698
a(I210
I315
I311
tp1699
a(I210
I314
I311
tp1700
a(I211
I313
I311
tp1701
a(I211
I312
I311
tp1702
a(I212
I311
I311
tp1703
a(I212
I310
I311
tp1704
a(I213
I309
I311
tp1705
a(I213
I308
I311
tp1706
a(I214
I307
I311
tp1707
a(I214
I306
I311
tp1708
a(I215
I305
I311
tp1709
a(I215
I304
I311
tp1710
a(I215
I303
I311
tp1711
a(I216
I302
I311
tp1712
a(I217
I301
I312
tp1713
a(I217
I300
I312
tp1714
a(I218
I299
I312
tp1715
a(I218
I298
I312
tp1716
a(I219
I297
I312
tp1717
a(I220
I296
I312
tp1718
a(I220
I295
I312
tp1719
a(I220
I294
I312
tp1720
a(I221
I293
I312
tp1721
a(I222
I292
I313
tp1722
a(I222
I291
I313
tp1723
a(I223
I290
I313
tp1724
a(I224
I289
I313
tp1725
a(I224
I288
I313
tp1726
a(I225
I287
I313
tp1727
a(I225
I286
I313
tp1728
a(I226
I285
I313
tp1729
a(I227
I284
I313
tp1730
a(I227
I283
I313
tp1731
a(I228
I282
I312
tp1732
a(I229
I281
I312
tp1733
a(I230
I280
I312
tp1734
a(I230
I279
I312
tp1735
a(I231
I278
I312
tp1736
a(I231
I277
I312
tp1737
a(I232
I276
I311
tp1738
a(I233
I275
I311
tp1739
a(I234
I274
I311
tp1740
a(I235
I273
I311
tp1741
a(I235
I272
I311
tp1742
a(I236
I271
I311
tp1743
a(I237
I270
I311
tp1744
a(I238
I269
I311
tp1745
a(I239
I268
I311
tp1746
a(I240
I267
I310
tp1747
a(I240
I266
I310
tp1748
a(I241
I265
I310
tp1749
a(I242
I264
I309
tp1750
a(I243
I263
I309
tp1751
a(I244
I262
I309
tp1752
a(I245
I261
I308
tp1753
a(I246
I260
I308
tp1754
a(I247
I259
I308
tp1755
a(I248
I258
I307
tp1756
a(I249
I257
I306
tp1757
a(I250
I256
I306
tp1758
a(I251
I255
I305
tp1759
a(I252
I254
I304
tp1760
a(I253
I254
I303
tp1761
a(I254
I253
I302
tp1762
a(I255
I252
I302
tp1763
a(I255
I251
I302
tp1764
a(I256
I251
I301
tp1765
a(I257
I250
I300
tp1766
a(I258
I249
I299
tp1767
a(I259
I249
I298
tp1768
a(I259
I249
I297
tp1769
a(I260
I248
I296
tp1770
a(I260
I248
I296
tp1771
a(I261
I247
I295
tp1772
a(I262
I246
I294
tp1773
a(I262
I246
I293
tp1774
a(I263
I246
I292
tp1775
a(I263
I246
I292
tp1776
a(I263
I246
I291
tp1777
a(I264
I245
I290
tp1778
a(I264
I245
I290
tp1779
a(I264
I245
I289
tp1780
a(I265
I244
I288
tp1781
a(I265
I244
I288
tp1782
a(I265
I244
I287
tp1783
a(I266
I244
I286
tp1784
a(I266
I244
I286
tp1785
a(I266
I244
I285
tp1786
a(I266
I244
I284
tp1787
a(I266
I244
I283
tp1788
a(I267
I243
I282
tp1789
a(I267
I243
I282
tp1790
a(I267
I243
I281
tp1791
a(I267
I243
I280
tp1792
a(I267
I243
I279
tp1793
a(I268
I242
I278
tp1794
a(I268
I242
I278
tp1795
a(I268
I242
I277
tp1796
a(I268
I242
I276
tp1797
a(I268
I242
I275
tp1798
a(I268
I242
I274
tp1799
a(I268
I242
I273
tp1800
a(I268
I242
I272
tp1801
a(I268
I242
I271
tp1802
a(I268
I242
I270
tp1803
a(I269
I242
I269
tp1804
a(I269
I242
I269
tp1805
a(I269
I242
I269
tp1806
a(I268
I242
I270
tp1807
a(I268
I242
I271
tp1808
a(I268
I242
I272
tp1809
a(I268
I242
I273
tp1810
a(I268
I242
I274
tp1811
a(I268
I242
I275
tp1812
a(I268
I242
I276
tp1813
a(I268
I242
I277
tp1814
a(I268
I242
I278
tp1815
a(I267
I243
I279
tp1816
a(I267
I243
I280
tp1817
a(I267
I243
I281
tp1818
a(I267
I243
I282
tp1819
a(I266
I244
I283
tp1820
a(I266
I244
I284
tp1821
a(I266
I244
I285
tp1822
a(I266
I244
I286
tp1823
a(I265
I244
I287
tp1824
a(I265
I244
I288
tp1825
a(I264
I245
I289
tp1826
a(I264
I245
I290
tp1827
a(I263
I246
I291
tp1828
a(I263
I246
I292
tp1829
a(I262
I246
I293
tp1830
a(I262
I246
I294
tp1831
a(I261
I247
I295
tp1832
a(I260
I248
I296
tp1833
a(I259
I249
I297
tp1834
a(I259
I249
I298
tp1835
a(I258
I249
I299
tp1836
a(I257
I250
I300
tp1837
a(I256
I251
I301
tp1838
a(I255
I252
I302
tp1839
a(I254
I253
I302
tp1840
a(I253
I254
I303
tp1841
a(I252
I254
I304
tp1842
a(I251
I255
I305
tp1843
a(I250
I256
I306
tp1844
a(I249
I257
I306
tp1845
a(I248
I258
I307
tp1846
a(I247
I259
I308
tp1847
a(I246
I260
I308
tp1848
a(I245
I261
I308
tp1849
a(I244
I262
I309
tp1850
a(I243
I263
I309
tp1851
a(I242
I264
I309
tp1852
a(I241
I265
I310
tp1853
a(I240
I266
I310
tp1854
a(I240
I267
I310
tp1855
a(I239
I268
I311
tp1856
a(I238
I269
I311
tp1857
a(I237
I270
I311
tp1858
a(I236
I271
I311
tp1859
a(I235
I272
I311
tp1860
a(I235
I273
I311
tp1861
a(I234
I274
I311
tp1862
a(I233
I275
I311
tp1863
a(I232
I276
I311
tp1864
a(I231
I277
I312
tp1865
a(I231
I278
I312
tp1866
a(I230
I279
I312
tp1867
a(I230
I280
I312
tp1868
a(I229
I281
I312
tp1869
a(I228
I282
I312
tp1870
a(I227
I283
I313
tp1871
a(I227
I284
I313
tp1872
a(I226
I285
I313
tp1873
a(I225
I286
I313
tp1874
a(I225
I287
I313
tp1875
a(I224
I288
I313
tp1876
a(I224
I289
I313
tp1877
a(I223
I290
I313
tp1878
a(I222
I291
I313
tp1879
a(I222
I292
I313
tp1880
a(I221
I293
I312
tp1881
a(I220
I294
I312
tp1882
a(I220
I295
I312
tp1883
a(I220
I296
I312
tp1884
a(I219
I297
I312
tp1885
a(I218
I298
I312
tp1886
a(I218
I299
I312
tp1887
a(I217
I300
I312
tp1888
a(I217
I301
I312
tp1889
a(I216
I302
I311
tp1890
a(I215
I303
I311
tp1891
a(I215
I304
I311
tp1892
a(I215
I305
I311
tp1893
a(I214
I306
I311
tp1894
a(I214
I307
I311
tp1895
a(I213
I308
I311
tp1896
a(I213
I309
I311
tp1897
a(I212
I310
I311
tp1898
a(I212
I311
I311
tp1899
a(I211
I312
I311
tp1900
a(I211
I313
I311
tp1901
a(I210
I314
I311
tp1902
a(I210
I315
I311
tp1903
a(I210
I316
I311
tp1904
a(I210
I317
I311
tp1905
a(I209
I318
I310
tp1906
a(I209
I319
I310
tp1907
a(I208
I320
I310
tp1908
a(I208
I321
I310
tp1909
a(I207
I322
I310
tp1910
a(I207
I323
I310
tp1911
a(I206
I324
I310
tp1912
a(I206
I325
I310
tp1913
a(I205
I326
I310
tp1914
a(I205
I327
I310
tp1915
a(I205
I328
I310
tp1916
a(I205
I329
I310
tp1917
a(I204
I330
I309
tp1918
a(I204
I331
I309
tp1919
a(I204
I332
I309
tp1920
a(I203
I333
I309
tp1921
a(I203
I334
I309
tp1922
a(I202
I335
I309
tp1923
a(I202
I336
I309
tp1924
a(I202
I337
I309
tp1925
a(I201
I338
I308
tp1926
a(I201
I339
I308
tp1927
a(I200
I340
I308
tp1928
a(I200
I341
I308
tp1929
a(I200
I342
I308
tp1930
a(I200
I343
I308
tp1931
a(I200
I344
I308
tp1932
a(I200
I345
I308
tp1933
a(I199
I346
I308
tp1934
a(I199
I347
I308
tp1935
a(I199
I348
I308
tp1936
a(I198
I349
I307
tp1937
a(I197
I349
I307
tp1938
a(I196
I349
I306
tp1939
a(I195
I349
I306
tp1940
a(I194
I348
I306
tp1941
a(I193
I348
I305
tp1942
a(I192
I348
I305
tp1943
a(I191
I348
I304
tp1944
a(I190
I348
I304
tp1945
a(I189
I348
I303
tp1946
a(I188
I348
I303
tp1947
a(I187
I348
I302
tp1948
a(I186
I347
I302
tp1949
a(I185
I347
I301
tp1950
a(I184
I347
I301
tp1951
a(I183
I347
I300
tp1952
a(I182
I347
I300
tp1953
a(I181
I346
I299
tp1954
a(I180
I346
I298
tp1955
a(I179
I346
I298
tp1956
a(I178
I346
I297
tp1957
a(I177
I345
I296
tp1958
a(I176
I345
I296
tp1959
a(I175
I345
I295
tp1960
a(I174
I345
I294
tp1961
a(I173
I344
I294
tp1962
a(I172
I344
I293
tp1963
a(I171
I344
I292
tp1964
a(I170
I344
I291
tp1965
a(I169
I343
I291
tp1966
a(I168
I343
I290
tp1967
a(I167
I342
I289
tp1968
a(I166
I342
I288
tp1969
a(I165
I342
I287
tp1970
a(I164
I341
I286
tp1971
a(I163
I341
I285
tp1972
a(I162
I340
I284
tp1973
a(I161
I340
I283
tp1974
a(I160
I340
I284
tp1975
a(I160
I340
I285
tp1976
a(I160
I340
I286
tp1977
a(I160
I340
I287
tp1978
a(I160
I340
I288
tp1979
a(I160
I340
I289
tp1980
a(I160
I340
I290
tp1981
a(I160
I340
I291
tp1982
a(I160
I340
I292
tp1983
a(I160
I340
I293
tp1984
a(I160
I340
I294
tp1985
a(I160
I340
I295
tp1986
a(I160
I340
I296
tp1987
a(I160
I340
I297
tp1988
a(I160
I340
I298
tp1989
a(I160
I340
I299
tp1990
a(I160
I340
I300
tp1991
a(I160
I340
I301
tp1992
a(I160
I340
I302
tp1993
a(I160
I340
I303
tp1994
a(I160
I340
I304
tp1995
a(I160
I340
I305
tp1996
a(I161
I340
I306
tp1997
a(I161
I340
I307
tp1998
a(I161
I340
I308
tp1999
a(I161
I340
I309
tp2000
a(I161
I340
I310
tp2001
a(I161
I340
I311
tp2002
a(I161
I340
I312
tp2003
a(I162
I340
I313
tp2004
a(I162
I340
I314
tp2005
a(I162
I340
I315
tp2006
a(I162
I340
I316
tp2007
a(I162
I340
I317
tp2008
a(I163
I341
I318
tp2009
a(I163
I341
I319
tp2010
a(I163
I341
I320
tp2011
a(I163
I341
I321
tp2012
a(I164
I341
I322
tp2013
a(I164
I341
I323
tp2014
a(I164
I341
I324
tp2015
a(I165
I342
I325
tp2016
a(I165
I342
I326
tp2017
a(I165
I342
I327
tp2018
a(I166
I342
I328
tp2019
a(I166
I342
I329
tp2020
a(I166
I342
I330
tp2021
a(I167
I342
I331
tp2022
a(I168
I343
I332
tp2023
a(I168
I343
I333
tp2024
a(I169
I343
I334
tp2025
a(I170
I344
I334
tp2026
a(I171
I344
I333
tp2027
a(I172
I344
I333
tp2028
a(I173
I344
I333
tp2029
a(I174
I345
I333
tp2030
a(I175
I345
I333
tp2031
a(I176
I345
I333
tp2032
a(I177
I345
I333
tp2033
a(I178
I346
I332
tp2034
a(I179
I346
I332
tp2035
a(I180
I346
I332
tp2036
a(I181
I346
I332
tp2037
a(I182
I347
I332
tp2038
a(I183
I347
I332
tp2039
a(I184
I347
I332
tp2040
a(I185
I347
I331
tp2041
a(I186
I347
I331
tp2042
a(I187
I348
I331
tp2043
a(I188
I348
I331
tp2044
a(I189
I348
I331
tp2045
a(I190
I348
I331
tp2046
a(I191
I348
I331
tp2047
a(I192
I348
I331
tp2048
a(I193
I348
I330
tp2049
a(I194
I348
I330
tp2050
a(I195
I349
I330
tp2051
a(I196
I349
I330
tp2052
a(I197
I349
I330
tp2053
a(I198
I349
I330
tp2054
a(I199
I348
I329
tp2055
a(I199
I347
I329
tp2056
a(I199
I346
I329
tp2057
a(I200
I345
I329
tp2058
a(I200
I344
I329
tp2059
a(I200
I343
I329
tp2060
a(I200
I342
I329
tp2061
a(I200
I341
I329
tp2062
a(I200
I340
I329
tp2063
a(I201
I339
I329
tp2064
a(I201
I338
I329
tp2065
a(I202
I337
I329
tp2066
a(I202
I336
I329
tp2067
a(I202
I335
I329
tp2068
a(I203
I334
I329
tp2069
a(I203
I333
I329
tp2070
a(I204
I332
I329
tp2071
a(I204
I331
I329
tp2072
a(I204
I330
I329
tp2073
a(I205
I329
I329
tp2074
a(I205
I328
I329
tp2075
a(I205
I327
I329
tp2076
a(I205
I326
I329
tp2077
a(I206
I325
I329
tp2078
a(I206
I324
I329
tp2079
a(I207
I323
I329
tp2080
a(I207
I322
I329
tp2081
a(I208
I321
I329
tp2082
a(I208
I320
I329
tp2083
a(I209
I319
I330
tp2084
a(I209
I318
I330
tp2085
a(I210
I317
I330
tp2086
a(I210
I316
I330
tp2087
a(I210
I315
I330
tp2088
a(I210
I314
I330
tp2089
a(I211
I313
I330
tp2090
a(I211
I312
I330
tp2091
a(I212
I311
I330
tp2092
a(I212
I310
I330
tp2093
a(I213
I309
I331
tp2094
a(I213
I308
I331
tp2095
a(I214
I307
I331
tp2096
a(I214
I306
I331
tp2097
a(I215
I305
I332
tp2098
a(I215
I304
I332
tp2099
a(I215
I303
I332
tp2100
a(I216
I302
I332
tp2101
a(I217
I301
I333
tp2102
a(I217
I300
I333
tp2103
a(I218
I299
I334
tp2104
a(I218
I298
I334
tp2105
a(I219
I297
I334
tp2106
a(I220
I296
I335
tp2107
a(I220
I295
I335
tp2108
a(I220
I294
I335
tp2109
a(I221
I293
I336
tp2110
a(I222
I292
I337
tp2111
a(I222
I291
I337
tp2112
a(I223
I290
I338
tp2113
a(I224
I289
I339
tp2114
a(I224
I288
I340
tp2115
a(I225
I287
I341
tp2116
a(I225
I286
I341
tp2117
a(I226
I285
I342
tp2118
a(I226
I285
I343
tp2119
a(I227
I284
I344
tp2120
a(I227
I283
I344
tp2121
a(I228
I282
I345
tp2122
a(I228
I282
I346
tp2123
a(I229
I281
I347
tp2124
a(I229
I281
I348
tp2125
a(I230
I280
I349
tp2126
a(I230
I279
I350
tp2127
a(I231
I278
I351
tp2128
a(I231
I277
I352
tp2129
a(I232
I276
I353
tp2130
a(I232
I276
I354
tp2131
a(I232
I276
I355
tp2132
a(I233
I275
I356
tp2133
a(I233
I275
I357
tp2134
a(I234
I274
I358
tp2135
a(I234
I274
I359
tp2136
a(I234
I274
I360
tp2137
a(I235
I273
I361
tp2138
a(I235
I272
I362
tp2139
a(I236
I271
I363
tp2140
a(I237
I270
I364
tp2141
a(I237
I270
I365
tp2142
a(I237
I270
I366
tp2143
a(I238
I269
I367
tp2144
a(I238
I269
I368
tp2145
a(I238
I269
I369
tp2146
a(I239
I268
I370
tp2147
a(I239
I268
I371
tp2148
a(I239
I268
I372
tp2149
a(I240
I267
I373
tp2150
a(I240
I266
I374
tp2151
a(I240
I266
I375
tp2152
a(I241
I265
I376
tp2153
a(I241
I265
I377
tp2154
a(I241
I265
I378
tp2155
a(I242
I264
I379
tp2156
a(I242
I264
I380
tp2157
a(I243
I263
I381
tp2158
a(I243
I263
I382
tp2159
a(I243
I263
I383
tp2160
a(I244
I262
I384
tp2161
a(I244
I262
I385
tp2162
a(I245
I261
I386
tp2163
a(I245
I261
I387
tp2164
a(I246
I260
I388
tp2165
a(I246
I260
I389
tp2166
a(I247
I259
I390
tp2167
a(I247
I259
I391
tp2168
a(I248
I258
I392
tp2169
a(I248
I258
I393
tp2170
a(I249
I257
I394
tp2171
a(I249
I257
I395
tp2172
a(I250
I256
I396
tp2173
a(I251
I255
I397
tp2174
a(I251
I255
I398
tp2175
a(I252
I254
I399
tp2176
a(I253
I254
I400
tp2177
a(I254
I253
I401
tp2178
a(I254
I253
I402
tp2179
a(I255
I252
I403
tp2180
a(I256
I251
I404
tp2181
a(I257
I250
I405
tp2182
a(I258
I249
I406
tp2183
a(I259
I249
I407
tp2184
a(I260
I248
I407
tp2185
a(I261
I247
I408
tp2186
a(I262
I246
I409
tp2187
a(I263
I246
I409
tp2188
a(I264
I245
I410
tp2189
a(I265
I244
I410
tp2190
a(I266
I244
I411
tp2191
a(I267
I243
I411
tp2192
a(I268
I242
I412
tp2193
a(I269
I242
I412
tp2194
a(I270
I241
I412
tp2195
a(I270
I241
I412
tp2196
a(I271
I240
I412
tp2197
a(I272
I240
I412
tp2198
a(I273
I240
I412
tp2199
a(I274
I239
I413
tp2200
a(I275
I238
I414
tp2201
a(I276
I238
I415
tp2202
a(I277
I237
I415
tp2203
a(I278
I237
I415
tp2204
a(I279
I237
I415
tp2205
a(I280
I236
I415
tp2206
a(I281
I235
I416
tp2207
a(I282
I235
I416
tp2208
a(I283
I235
I416
tp2209
a(I284
I234
I416
tp2210
a(I285
I234
I417
tp2211
a(I286
I233
I417
tp2212
a(I287
I233
I417
tp2213
a(I288
I233
I417
tp2214
a(I289
I232
I417
tp2215
a(I290
I232
I417
tp2216
a(I291
I231
I417
tp2217
a(I292
I231
I417
tp2218
a(I293
I231
I417
tp2219
a(I294
I231
I418
tp2220
a(I295
I230
I418
tp2221
a(I296
I230
I418
tp2222
a(I297
I230
I418
tp2223
a(I298
I229
I418
tp2224
a(I299
I229
I418
tp2225
a(I300
I229
I417
tp2226
a(I301
I229
I417
tp2227
a(I302
I228
I417
tp2228
a(I303
I228
I417
tp2229
a(I304
I228
I417
tp2230
a(I305
I228
I416
tp2231
a(I306
I228
I416
tp2232
a(I307
I227
I416
tp2233
a(I308
I227
I415
tp2234
a(I309
I227
I415
tp2235
a(I310
I227
I414
tp2236
a(I311
I227
I414
tp2237
a(I312
I227
I413
tp2238
a(I313
I226
I412
tp2239
a(I314
I226
I411
tp2240
a(I314
I226
I410
tp2241
a(I315
I226
I409
tp2242
a(I315
I226
I409
tp2243
a(I316
I226
I409
tp2244
a(I317
I226
I409
tp2245
a(I318
I226
I409
tp2246
a(I319
I226
I409
tp2247
a(I320
I226
I409
tp2248
a(I321
I226
I409
tp2249
a(I322
I226
I409
tp2250
a(I323
I227
I409
tp2251
a(I322
I228
I409
tp2252
a(I321
I228
I409
tp2253
a(I320
I228
I409
tp2254
a(I319
I228
I409
tp2255
a(I318
I228
I409
tp2256
a(I317
I228
I409
tp2257
a(I316
I228
I409
tp2258
a(I315
I229
I409
tp2259
a(I314
I229
I410
tp2260
a(I313
I229
I412
tp2261
a(I312
I229
I413
tp2262
a(I311
I229
I414
tp2263
a(I310
I230
I414
tp2264
a(I309
I230
I415
tp2265
a(I308
I230
I415
tp2266
a(I307
I230
I416
tp2267
a(I306
I231
I416
tp2268
a(I305
I231
I416
tp2269
a(I304
I231
I417
tp2270
a(I303
I232
I417
tp2271
a(I302
I232
I417
tp2272
a(I301
I232
I417
tp2273
a(I300
I232
I417
tp2274
a(I299
I233
I418
tp2275
a(I298
I233
I418
tp2276
a(I297
I233
I418
tp2277
a(I296
I234
I418
tp2278
a(I295
I234
I418
tp2279
a(I294
I235
I418
tp2280
a(I293
I235
I417
tp2281
a(I292
I236
I417
tp2282
a(I291
I236
I417
tp2283
a(I290
I236
I417
tp2284
a(I289
I237
I417
tp2285
a(I288
I237
I417
tp2286
a(I287
I237
I417
tp2287
a(I286
I238
I417
tp2288
a(I285
I239
I417
tp2289
a(I284
I240
I416
tp2290
a(I283
I240
I416
tp2291
a(I282
I241
I416
tp2292
a(I281
I241
I416
tp2293
a(I280
I242
I415
tp2294
a(I279
I243
I415
tp2295
a(I278
I244
I415
tp2296
a(I277
I244
I415
tp2297
a(I276
I245
I415
tp2298
a(I275
I245
I414
tp2299
a(I275
I246
I414
tp2300
a(I274
I247
I413
tp2301
a(I273
I248
I414
tp2302
a(I272
I248
I415
tp2303
a(I271
I249
I415
tp2304
a(I270
I250
I416
tp2305
a(I270
I251
I416
tp2306
a(I269
I252
I416
tp2307
a(I268
I253
I417
tp2308
a(I267
I254
I418
tp2309
a(I266
I255
I419
tp2310
a(I265
I256
I420
tp2311
a(I265
I257
I420
tp2312
a(I264
I258
I421
tp2313
a(I263
I259
I422
tp2314
a(I262
I260
I424
tp2315
a(I262
I261
I424
tp2316
a(I261
I262
I425
tp2317
a(I261
I263
I425
tp2318
a(I261
I264
I425
tp2319
a(I260
I265
I426
tp2320
a(I260
I266
I426
tp2321
a(I260
I267
I426
tp2322
a(I260
I268
I426
tp2323
a(I260
I269
I426
tp2324
a(I260
I270
I426
tp2325
a(I260
I271
I426
tp2326
a(I260
I272
I426
tp2327
a(I260
I273
I426
tp2328
a(I260
I274
I426
tp2329
a(I260
I275
I426
tp2330
a(I260
I276
I426
tp2331
a(I260
I277
I426
tp2332
a(I260
I278
I426
tp2333
a(I260
I279
I426
tp2334
a(I260
I280
I426
tp2335
a(I260
I281
I426
tp2336
a(I261
I282
I425
tp2337
a(I261
I283
I425
tp2338
a(I261
I284
I425
tp2339
a(I261
I285
I425
tp2340
a(I262
I286
I424
tp2341
a(I262
I287
I424
tp2342
a(I262
I288
I424
tp2343
a(I262
I289
I424
tp2344
a(I263
I290
I423
tp2345
a(I263
I291
I423
tp2346
a(I264
I292
I421
tp2347
a(I264
I293
I421
tp2348
a(I264
I294
I421
tp2349
a(I265
I295
I420
tp2350
a(I265
I296
I420
tp2351
a(I266
I297
I419
tp2352
a(I267
I298
I418
tp2353
a(I267
I299
I418
tp2354
a(I267
I300
I418
tp2355
a(I268
I301
I417
tp2356
a(I269
I302
I416
tp2357
a(I270
I303
I416
tp2358
a(I271
I304
I415
tp2359
a(I272
I305
I415
tp2360
a(I273
I305
I414
tp2361
a(I274
I305
I413
tp2362
a(I275
I306
I414
tp2363
a(I275
I307
I414
tp2364
a(I276
I307
I415
tp2365
a(I277
I307
I415
tp2366
a(I278
I307
I415
tp2367
a(I279
I307
I415
tp2368
a(I280
I307
I415
tp2369
a(I281
I306
I416
tp2370
a(I282
I306
I416
tp2371
a(I283
I306
I416
tp2372
a(I284
I306
I416
tp2373
a(I285
I305
I417
tp2374
a(I286
I305
I417
tp2375
a(I287
I304
I417
tp2376
a(I288
I304
I417
tp2377
a(I289
I303
I417
tp2378
a(I290
I302
I417
tp2379
a(I291
I302
I417
tp2380
a(I292
I301
I417
tp2381
a(I293
I301
I417
tp2382
a(I294
I300
I418
tp2383
a(I295
I299
I418
tp2384
a(I296
I298
I418
tp2385
a(I297
I297
I418
tp2386
a(I298
I297
I418
tp2387
a(I299
I296
I418
tp2388
a(I300
I295
I417
tp2389
a(I300
I294
I417
tp2390
a(I301
I293
I417
tp2391
a(I302
I293
I417
tp2392
a(I303
I292
I417
tp2393
a(I304
I291
I417
tp2394
a(I305
I290
I416
tp2395
a(I305
I289
I416
tp2396
a(I306
I288
I416
tp2397
a(I307
I287
I416
tp2398
a(I308
I286
I415
tp2399
a(I309
I285
I415
tp2400
a(I310
I284
I414
tp2401
a(I310
I283
I414
tp2402
a(I311
I282
I414
tp2403
a(I312
I281
I413
tp2404
a(I313
I280
I412
tp2405
a(I312
I279
I413
tp2406
a(I311
I278
I414
tp2407
a(I310
I278
I414
tp2408
a(I309
I277
I415
tp2409
a(I308
I277
I415
tp2410
a(I307
I277
I416
tp2411
a(I306
I277
I416
tp2412
a(I305
I277
I416
tp2413
a(I304
I277
I417
tp2414
a(I303
I277
I417
tp2415
a(I302
I277
I417
tp2416
a(I301
I277
I417
tp2417
a(I300
I277
I417
tp2418
a(I299
I278
I418
tp2419
a(I298
I279
I418
tp2420
a(I297
I279
I418
tp2421
a(I296
I279
I418
tp2422
a(I295
I279
I418
tp2423
a(I294
I280
I418
tp2424
a(I293
I280
I417
tp2425
a(I292
I280
I417
tp2426
a(I291
I281
I417
tp2427
a(I290
I281
I417
tp2428
a(I289
I282
I417
tp2429
a(I288
I282
I417
tp2430
a(I287
I282
I417
tp2431
a(I286
I283
I417
tp2432
a(I285
I283
I417
tp2433
a(I284
I284
I416
tp2434
a(I283
I284
I416
tp2435
a(I282
I285
I416
tp2436
a(I281
I285
I416
tp2437
a(I280
I286
I415
tp2438
a(I279
I287
I415
tp2439
a(I278
I287
I415
tp2440
a(I277
I288
I415
tp2441
a(I276
I289
I415
tp2442
a(I275
I289
I414
tp2443
a(I274
I290
I413
tp2444
a(I273
I291
I414
tp2445
a(I272
I292
I415
tp2446
a(I271
I293
I415
tp2447
a(I270
I293
I416
tp2448
a(I270
I294
I416
tp2449
a(I269
I295
I416
tp2450
a(I268
I296
I417
tp2451
a(I267
I296
I418
tp2452
a(I266
I297
I419
tp2453
a(I265
I298
I420
tp2454
a(I264
I299
I421
tp2455
a(I263
I300
I422
tp2456
a(I262
I301
I424
tp2457
a(I261
I302
I425
tp2458
a(I261
I303
I425
tp2459
a(I260
I304
I426
tp2460
a(I260
I305
I426
tp2461
a(I259
I306
I427
tp2462
a(I259
I307
I427
tp2463
a(I258
I308
I428
tp2464
a(I258
I309
I428
tp2465
a(I257
I310
I429
tp2466
a(I257
I311
I429
tp2467
a(I256
I312
I430
tp2468
a(I256
I313
I430
tp2469
a(I255
I314
I431
tp2470
a(I255
I315
I431
tp2471
a(I255
I316
I431
tp2472
a(I255
I317
I431
tp2473
a(I255
I318
I431
tp2474
a(I255
I319
I431
tp2475
a(I254
I320
I433
tp2476
a(I254
I321
I433
tp2477
a(I254
I322
I433
tp2478
a(I254
I323
I433
tp2479
a(I254
I324
I433
tp2480
a(I254
I325
I433
tp2481
a(I254
I326
I433
tp2482
a(I254
I327
I433
tp2483
a(I254
I328
I433
tp2484
a(I254
I329
I433
tp2485
a(I254
I330
I433
tp2486
a(I254
I331
I433
tp2487
a(I255
I332
I432
tp2488
a(I255
I333
I432
tp2489
a(I255
I334
I432
tp2490
a(I255
I335
I432
tp2491
a(I255
I336
I432
tp2492
a(I255
I337
I432
tp2493
a(I255
I338
I432
tp2494
a(I256
I339
I430
tp2495
a(I256
I340
I430
tp2496
a(I257
I341
I429
tp2497
a(I257
I342
I429
tp2498
a(I258
I343
I428
tp2499
a(I258
I344
I428
tp2500
a(I259
I345
I427
tp2501
a(I260
I346
I426
tp2502
a(I260
I347
I426
tp2503
a(I260
I348
I426
tp2504
a(I261
I349
I425
tp2505
a(I262
I350
I424
tp2506
a(I263
I351
I423
tp2507
a(I264
I352
I421
tp2508
a(I265
I353
I420
tp2509
a(I266
I354
I419
tp2510
a(I267
I354
I418
tp2511
a(I268
I355
I417
tp2512
a(I269
I355
I416
tp2513
a(I270
I355
I416
tp2514
a(I271
I356
I415
tp2515
a(I272
I356
I415
tp2516
a(I273
I356
I414
tp2517
a(I274
I356
I413
tp2518
a(I275
I356
I414
tp2519
a(I276
I356
I415
tp2520
a(I277
I356
I415
tp2521
a(I278
I356
I415
tp2522
a(I279
I356
I415
tp2523
a(I280
I356
I415
tp2524
a(I281
I355
I416
tp2525
a(I282
I354
I416
tp2526
a(I283
I354
I416
tp2527
a(I284
I354
I416
tp2528
a(I285
I353
I417
tp2529
a(I286
I353
I417
tp2530
a(I287
I352
I417
tp2531
a(I288
I352
I417
tp2532
a(I289
I351
I417
tp2533
a(I290
I350
I417
tp2534
a(I291
I350
I417
tp2535
a(I292
I349
I417
tp2536
a(I293
I348
I417
tp2537
a(I294
I348
I418
tp2538
a(I295
I347
I418
tp2539
a(I296
I346
I418
tp2540
a(I297
I345
I418
tp2541
a(I298
I344
I418
tp2542
a(I0
I124
I171
tp2543
a(I1
I123
I172
tp2544
a(I2
I6
I173
tp2545
a(I3
I5
I173
tp2546
a(I4
I5
I174
tp2547
a(I5
I5
I174
tp2548
a(I6
I5
I175
tp2549
a(I7
I5
I176
tp2550
a(I8
I5
I176
tp2551
a(I9
I5
I177
tp2552
a(I10
I5
I177
tp2553
a(I11
I5
I178
tp2554
a(I12
I5
I179
tp2555
a(I13
I6
I179
tp2556
a(I14
I6
I179
tp2557
a(I15
I6
I180
tp2558
a(I16
I6
I181
tp2559
a(I17
I6
I181
tp2560
a(I18
I6
I182
tp2561
a(I19
I6
I182
tp2562
a(I20
I7
I182
tp2563
a(I21
I7
I183
tp2564
a(I22
I7
I183
tp2565
a(I23
I7
I184
tp2566
a(I24
I7
I184
tp2567
a(I25
I7
I184
tp2568
a(I26
I8
I185
tp2569
a(I27
I8
I185
tp2570
a(I28
I8
I185
tp2571
a(I29
I8
I186
tp2572
a(I30
I8
I186
tp2573
a(I31
I9
I186
tp2574
a(I32
I9
I187
tp2575
a(I33
I9
I187
tp2576
a(I34
I9
I187
tp2577
a(I35
I10
I187
tp2578
a(I36
I10
I188
tp2579
a(I37
I10
I188
tp2580
a(I38
I10
I188
tp2581
a(I39
I10
I188
tp2582
a(I40
I11
I188
tp2583
a(I41
I11
I189
tp2584
a(I42
I11
I189
tp2585
a(I43
I12
I189
tp2586
a(I44
I12
I189
tp2587
a(I45
I12
I189
tp2588
a(I46
I13
I189
tp2589
a(I47
I13
I190
tp2590
a(I48
I13
I190
tp2591
a(I49
I14
I190
tp2592
a(I50
I14
I190
tp2593
a(I51
I14
I190
tp2594
a(I52
I15
I190
tp2595
a(I53
I15
I190
tp2596
a(I54
I15
I189
tp2597
a(I55
I16
I189
tp2598
a(I56
I16
I189
tp2599
a(I57
I17
I189
tp2600
a(I58
I17
I189
tp2601
a(I59
I18
I189
tp2602
a(I60
I18
I188
tp2603
a(I61
I19
I188
tp2604
a(I62
I19
I188
tp2605
a(I63
I20
I188
tp2606
a(I64
I20
I187
tp2607
a(I65
I21
I187
tp2608
a(I66
I22
I186
tp2609
a(I67
I22
I186
tp2610
a(I68
I23
I186
tp2611
a(I69
I23
I185
tp2612
a(I70
I24
I185
tp2613
a(I71
I25
I184
tp2614
a(I72
I26
I184
tp2615
a(I73
I26
I184
tp2616
a(I74
I27
I183
tp2617
a(I75
I28
I183
tp2618
a(I76
I29
I182
tp2619
a(I77
I29
I182
tp2620
a(I78
I30
I181
tp2621
a(I79
I30
I181
tp2622
a(I80
I31
I180
tp2623
a(I81
I31
I180
tp2624
a(I82
I32
I179
tp2625
a(I83
I32
I179
tp2626
a(I84
I32
I179
tp2627
a(I85
I33
I178
tp2628
a(I86
I33
I178
tp2629
a(I87
I33
I177
tp2630
a(I88
I33
I177
tp2631
a(I89
I33
I176
tp2632
a(I90
I32
I176
tp2633
a(I91
I32
I175
tp2634
a(I92
I32
I175
tp2635
a(I93
I32
I175
tp2636
a(I94
I31
I175
tp2637
a(I95
I30
I174
tp2638
a(I96
I30
I174
tp2639
a(I97
I30
I174
tp2640
a(I98
I29
I175
tp2641
a(I99
I28
I175
tp2642
a(I100
I27
I176
tp2643
a(I100
I27
I177
tp2644
a(I101
I27
I178
tp2645
a(I101
I27
I179
tp2646
a(I101
I27
I180
tp2647
a(I101
I27
I181
tp2648
a(I102
I26
I182
tp2649
a(I102
I26
I183
tp2650
a(I102
I26
I184
tp2651
a(I102
I26
I185
tp2652
a(I103
I26
I186
tp2653
a(I103
I26
I187
tp2654
a(I103
I26
I188
tp2655
a(I103
I26
I189
tp2656
a(I103
I26
I190
tp2657
a(I104
I25
I191
tp2658
a(I104
I25
I192
tp2659
a(I104
I25
I193
tp2660
a(I104
I25
I194
tp2661
a(I105
I24
I195
tp2662
a(I105
I24
I196
tp2663
a(I105
I24
I197
tp2664
a(I105
I24
I198
tp2665
a(I106
I24
I199
tp2666
a(I106
I24
I200
tp2667
a(I106
I24
I201
tp2668
a(I107
I23
I202
tp2669
a(I107
I23
I203
tp2670
a(I107
I23
I204
tp2671
a(I108
I23
I205
tp2672
a(I108
I23
I206
tp2673
a(I109
I22
I207
tp2674
a(I109
I22
I208
tp2675
a(I109
I22
I209
tp2676
a(I110
I22
I210
tp2677
a(I110
I22
I211
tp2678
a(I111
I21
I212
tp2679
a(I111
I21
I213
tp2680
a(I112
I21
I214
tp2681
a(I112
I21
I215
tp2682
a(I112
I21
I216
tp2683
a(I113
I21
I217
tp2684
a(I113
I21
I218
tp2685
a(I114
I21
I219
tp2686
a(I114
I21
I220
tp2687
a(I115
I20
I221
tp2688
a(I115
I20
I222
tp2689
a(I116
I20
I223
tp2690
a(I116
I20
I224
tp2691
a(I117
I20
I225
tp2692
a(I118
I20
I226
tp2693
a(I118
I20
I227
tp2694
a(I119
I20
I228
tp2695
a(I119
I20
I229
tp2696
a(I120
I20
I230
tp2697
a(I120
I20
I231
tp2698
a(I121
I20
I232
tp2699
a(I122
I20
I233
tp2700
a(I122
I20
I234
tp2701
a(I123
I20
I235
tp2702
a(I123
I20
I236
tp2703
a(I124
I20
I237
tp2704
a(I125
I21
I238
tp2705
a(I125
I21
I239
tp2706
a(I126
I21
I240
tp2707
a(I127
I21
I241
tp2708
a(I127
I21
I242
tp2709
a(I128
I21
I243
tp2710
a(I129
I22
I244
tp2711
a(I129
I22
I245
tp2712
a(I130
I22
I246
tp2713
a(I131
I23
I247
tp2714
a(I132
I23
I248
tp2715
a(I132
I23
I249
tp2716
a(I132
I23
I250
tp2717
a(I133
I23
I251
tp2718
a(I134
I24
I252
tp2719
a(I135
I25
I253
tp2720
a(I136
I25
I254
tp2721
a(I137
I26
I255
tp2722
a(I138
I26
I256
tp2723
a(I138
I26
I257
tp2724
a(I139
I27
I258
tp2725
a(I140
I28
I259
tp2726
a(I141
I29
I260
tp2727
a(I141
I29
I261
tp2728
a(I142
I30
I262
tp2729
a(I143
I31
I263
tp2730
a(I144
I32
I264
tp2731
a(I145
I33
I265
tp2732
a(I146
I34
I266
tp2733
a(I146
I34
I267
tp2734
a(I147
I35
I268
tp2735
a(I148
I36
I269
tp2736
a(I149
I37
I270
tp2737
a(I150
I39
I271
tp2738
a(I151
I41
I272
tp2739
a(I152
I42
I273
tp2740
a(I152
I42
I274
tp2741
a(I153
I43
I275
tp2742
a(I154
I45
I276
tp2743
a(I155
I46
I277
tp2744
a(I156
I49
I278
tp2745
a(I157
I50
I279
tp2746
a(I158
I52
I280
tp2747
a(I159
I53
I281
tp2748
a(I160
I55
I282
tp2749
a(I161
I58
I283
tp2750
a(I162
I60
I284
tp2751
a(I163
I62
I285
tp2752
a(I164
I64
I286
tp2753
a(I165
I66
I287
tp2754
a(I166
I69
I288
tp2755
a(I167
I71
I289
tp2756
a(I168
I73
I290
tp2757
a(I169
I76
I291
tp2758
a(I170
I78
I291
tp2759
a(I171
I82
I292
tp2760
a(I172
I85
I293
tp2761
a(I173
I87
I294
tp2762
a(I174
I89
I294
tp2763
a(I175
I92
I295
tp2764
a(I176
I97
I296
tp2765
a(I177
I100
I296
tp2766
a(I178
I103
I297
tp2767
a(I179
I106
I298
tp2768
a(I180
I109
I298
tp2769
a(I181
I115
I299
tp2770
a(I182
I118
I300
tp2771
a(I183
I122
I300
tp2772
a(I184
I125
I301
tp2773
a(I185
I129
I301
tp2774
a(I186
I137
I302
tp2775
a(I187
I141
I302
tp2776
a(I188
I146
I303
tp2777
a(I189
I151
I303
tp2778
a(I190
I157
I304
tp2779
a(I191
I170
I304
tp2780
a(I192
I179
I305
tp2781
a(I193
I193
I305
tp2782
a(I194
I348
I306
tp2783
a(I195
I349
I306
tp2784
a(I196
I349
I306
tp2785
a(I197
I349
I307
tp2786
a(I198
I349
I307
tp2787
a(I199
I346
I308
tp2788
a(I200
I340
I308
tp2789
a(I201
I338
I308
tp2790
a(I202
I335
I309
tp2791
a(I203
I333
I309
tp2792
a(I204
I330
I309
tp2793
a(I205
I326
I310
tp2794
a(I206
I324
I310
tp2795
a(I207
I322
I310
tp2796
a(I208
I320
I310
tp2797
a(I209
I318
I310
tp2798
a(I210
I314
I311
tp2799
a(I211
I312
I311
tp2800
a(I212
I310
I311
tp2801
a(I213
I308
I311
tp2802
a(I214
I306
I311
tp2803
a(I215
I303
I311
tp2804
a(I216
I302
I311
tp2805
a(I217
I300
I312
tp2806
a(I218
I298
I312
tp2807
a(I219
I297
I312
tp2808
a(I220
I294
I312
tp2809
a(I221
I293
I312
tp2810
a(I222
I291
I313
tp2811
a(I223
I290
I313
tp2812
a(I224
I288
I313
tp2813
a(I225
I286
I313
tp2814
a(I226
I285
I313
tp2815
a(I227
I283
I313
tp2816
a(I228
I282
I312
tp2817
a(I229
I281
I312
tp2818
a(I230
I279
I312
tp2819
a(I231
I277
I312
tp2820
a(I232
I276
I311
tp2821
a(I233
I275
I311
tp2822
a(I234
I274
I311
tp2823
a(I235
I272
I311
tp2824
a(I236
I271
I311
tp2825
a(I237
I270
I311
tp2826
a(I238
I269
I311
tp2827
a(I239
I268
I311
tp2828
a(I240
I266
I310
tp2829
a(I241
I265
I310
tp2830
a(I242
I264
I309
tp2831
a(I243
I263
I309
tp2832
a(I244
I262
I309
tp2833
a(I245
I261
I308
tp2834
a(I246
I260
I308
tp2835
a(I247
I259
I308
tp2836
a(I248
I258
I307
tp2837
a(I249
I257
I306
tp2838
a(I250
I256
I306
tp2839
a(I251
I255
I305
tp2840
a(I252
I254
I304
tp2841
a(I253
I254
I303
tp2842
a(I254
I253
I302
tp2843
a(I255
I251
I302
tp2844
a(I256
I251
I301
tp2845
a(I257
I250
I300
tp2846
a(I258
I249
I299
tp2847
a(I259
I249
I298
tp2848
a(I259
I249
I297
tp2849
a(I260
I248
I296
tp2850
a(I261
I247
I295
tp2851
a(I262
I246
I294
tp2852
a(I262
I246
I293
tp2853
a(I263
I246
I292
tp2854
a(I263
I246
I291
tp2855
a(I264
I245
I290
tp2856
a(I264
I245
I289
tp2857
a(I265
I244
I288
tp2858
a(I265
I244
I287
tp2859
a(I266
I244
I286
tp2860
a(I266
I244
I285
tp2861
a(I266
I244
I284
tp2862
a(I266
I244
I283
tp2863
a(I267
I243
I282
tp2864
a(I267
I243
I281
tp2865
a(I267
I243
I280
tp2866
a(I267
I243
I279
tp2867
a(I268
I242
I278
tp2868
a(I268
I242
I277
tp2869
a(I268
I242
I276
tp2870
a(I268
I242
I275
tp2871
a(I268
I242
I274
tp2872
a(I268
I242
I273
tp2873
a(I268
I242
I272
tp2874
a(I268
I242
I271
tp2875
a(I268
I242
I270
tp2876
a(I269
I242
I269
tp2877
a(I269
I242
I268
tp2878
a(I269
I242
I267
tp2879
a(I269
I242
I266
tp2880
a(I269
I242
I265
tp2881
a(I268
I242
I264
tp2882
a(I268
I242
I263
tp2883
a(I268
I242
I262
tp2884
a(I268
I242
I261
tp2885
a(I268
I242
I260
tp2886
a(I268
I242
I259
tp2887
a(I268
I242
I258
tp2888
a(I268
I242
I257
tp2889
a(I268
I242
I256
tp2890
a(I268
I242
I255
tp2891
a(I267
I243
I254
tp2892
a(I267
I243
I253
tp2893
a(I267
I243
I252
tp2894
a(I267
I243
I251
tp2895
a(I267
I243
I250
tp2896
a(I266
I244
I249
tp2897
a(I266
I244
I248
tp2898
a(I266
I244
I247
tp2899
a(I266
I244
I246
tp2900
a(I266
I244
I245
tp2901
a(I265
I244
I244
tp2902
a(I265
I244
I243
tp2903
a(I265
I244
I242
tp2904
a(I265
I244
I241
tp2905
a(I264
I245
I240
tp2906
a(I264
I245
I239
tp2907
a(I264
I245
I238
tp2908
a(I263
I246
I237
tp2909
a(I263
I246
I236
tp2910
a(I263
I246
I235
tp2911
a(I262
I246
I234
tp2912
a(I262
I246
I233
tp2913
a(I262
I246
I232
tp2914
a(I261
I247
I231
tp2915
a(I261
I247
I230
tp2916
a(I261
I247
I229
tp2917
a(I260
I248
I228
tp2918
a(I260
I248
I227
tp2919
a(I259
I249
I226
tp2920
a(I259
I249
I225
tp2921
a(I258
I249
I224
tp2922
a(I258
I249
I223
tp2923
a(I257
I250
I222
tp2924
a(I257
I250
I221
tp2925
a(I256
I251
I220
tp2926
a(I256
I251
I219
tp2927
a(I255
I251
I218
tp2928
a(I255
I251
I217
tp2929
a(I255
I252
I217
tp2930
a(I254
I253
I216
tp2931
a(I254
I253
I216
tp2932
a(I254
I253
I215
tp2933
a(I253
I254
I214
tp2934
a(I253
I254
I213
tp2935
a(I252
I254
I212
tp2936
a(I251
I255
I211
tp2937
a(I251
I255
I210
tp2938
a(I250
I256
I209
tp2939
a(I250
I256
I208
tp2940
a(I250
I256
I207
tp2941
a(I249
I257
I206
tp2942
a(I248
I258
I205
tp2943
a(I248
I258
I204
tp2944
a(I247
I259
I203
tp2945
a(I246
I260
I202
tp2946
a(I245
I261
I201
tp2947
a(I244
I262
I200
tp2948
a(I244
I262
I199
tp2949
a(I243
I263
I198
tp2950
a(I242
I264
I197
tp2951
a(I241
I265
I196
tp2952
a(I240
I266
I195
tp2953
a(I240
I266
I194
tp2954
a(I240
I267
I194
tp2955
a(I239
I268
I193
tp2956
a(I239
I268
I193
tp2957
a(I238
I269
I192
tp2958
a(I237
I270
I191
tp2959
a(I236
I271
I190
tp2960
a(I235
I272
I189
tp2961
a(I235
I273
I189
tp2962
a(I234
I274
I188
tp2963
a(I234
I274
I188
tp2964
a(I233
I275
I187
tp2965
a(I232
I276
I186
tp2966
a(I231
I277
I185
tp2967
a(I231
I278
I185
tp2968
a(I230
I279
I184
tp2969
a(I230
I279
I184
tp2970
a(I230
I280
I184
tp2971
a(I229
I281
I183
tp2972
a(I229
I281
I183
tp2973
a(I228
I282
I182
tp2974
a(I227
I283
I182
tp2975
a(I227
I284
I182
tp2976
a(I226
I285
I181
tp2977
a(I226
I285
I181
tp2978
a(I225
I286
I180
tp2979
a(I225
I287
I180
tp2980
a(I224
I288
I179
tp2981
a(I224
I288
I179
tp2982
a(I224
I289
I179
tp2983
a(I223
I290
I178
tp2984
a(I223
I290
I178
tp2985
a(I222
I291
I177
tp2986
a(I222
I292
I177
tp2987
a(I221
I293
I176
tp2988
a(I221
I293
I176
tp2989
a(I220
I294
I175
tp2990
a(I220
I295
I175
tp2991
a(I220
I296
I175
tp2992
a(I219
I297
I175
tp2993
a(I219
I297
I175
tp2994
a(I218
I298
I174
tp2995
a(I218
I299
I174
tp2996
a(I217
I300
I173
tp2997
a(I217
I300
I173
tp2998
a(I217
I301
I173
tp2999
a(I216
I302
I173
tp3000
a(I216
I302
I173
tp3001
a(I215
I303
I172
tp3002
a(I215
I304
I172
tp3003
a(I215
I305
I172
tp3004
a(I214
I306
I171
tp3005
a(I214
I306
I171
tp3006
a(I214
I307
I171
tp3007
a(I213
I308
I170
tp3008
a(I213
I308
I170
tp3009
a(I213
I309
I170
tp3010
a(I212
I310
I169
tp3011
a(I212
I310
I169
tp3012
a(I212
I311
I169
tp3013
a(I211
I312
I169
tp3014
a(I211
I312
I169
tp3015
a(I211
I313
I169
tp3016
a(I210
I314
I168
tp3017
a(I210
I314
I168
tp3018
a(I210
I315
I168
tp3019
a(I210
I316
I168
tp3020
a(I210
I317
I168
tp3021
a(I209
I318
I167
tp3022
a(I209
I318
I167
tp3023
a(I209
I319
I167
tp3024
a(I208
I320
I166
tp3025
a(I208
I320
I166
tp3026
a(I208
I321
I166
tp3027
a(I207
I322
I166
tp3028
a(I207
I322
I166
tp3029
a(I207
I323
I166
tp3030
a(I206
I324
I165
tp3031
a(I206
I324
I165
tp3032
a(I206
I325
I165
tp3033
a(I205
I326
I164
tp3034
a(I205
I326
I164
tp3035
a(I205
I327
I164
tp3036
a(I205
I328
I164
tp3037
a(I205
I329
I164
tp3038
a(I204
I330
I164
tp3039
a(I204
I330
I164
tp3040
a(I204
I331
I164
tp3041
a(I204
I332
I164
tp3042
a(I203
I333
I163
tp3043
a(I203
I333
I163
tp3044
a(I203
I334
I163
tp3045
a(I202
I335
I162
tp3046
a(I202
I335
I162
tp3047
a(I202
I336
I162
tp3048
a(I202
I337
I162
tp3049
a(I201
I338
I162
tp3050
a(I201
I338
I162
tp3051
a(I201
I339
I162
tp3052
a(I200
I340
I161
tp3053
a(I200
I340
I161
tp3054
a(I200
I341
I161
tp3055
a(I200
I342
I161
tp3056
a(I200
I343
I161
tp3057
a(I200
I344
I161
tp3058
a(I200
I345
I161
tp3059
a(I199
I346
I160
tp3060
a(I199
I346
I160
tp3061
a(I199
I347
I160
tp3062
a(I199
I348
I160
tp3063
a(I198
I349
I160
tp3064
a(I198
I349
I160
tp3065
a(I197
I349
I159
tp3066
a(I196
I349
I158
tp3067
a(I195
I349
I158
tp3068
a(I194
I348
I157
tp3069
a(I193
I348
I156
tp3070
a(I192
I348
I156
tp3071
a(I191
I348
I155
tp3072
a(I190
I348
I154
tp3073
a(I189
I348
I154
tp3074
a(I188
I348
I153
tp3075
a(I187
I348
I153
tp3076
a(I186
I347
I152
tp3077
a(I185
I347
I151
tp3078
a(I184
I347
I151
tp3079
a(I183
I347
I150
tp3080
a(I182
I347
I149
tp3081
a(I181
I346
I149
tp3082
a(I180
I346
I148
tp3083
a(I179
I346
I148
tp3084
a(I178
I346
I147
tp3085
a(I177
I345
I146
tp3086
a(I176
I345
I146
tp3087
a(I175
I345
I145
tp3088
a(I174
I345
I145
tp3089
a(I173
I344
I144
tp3090
a(I172
I344
I144
tp3091
a(I171
I344
I143
tp3092
a(I170
I344
I142
tp3093
a(I169
I343
I142
tp3094
a(I168
I343
I141
tp3095
a(I167
I342
I140
tp3096
a(I166
I342
I140
tp3097
a(I165
I342
I139
tp3098
a(I164
I341
I139
tp3099
a(I163
I341
I138
tp3100
a(I162
I340
I137
tp3101
a(I161
I340
I137
tp3102
a(I160
I340
I136
tp3103
a(I159
I339
I135
tp3104
a(I158
I338
I135
tp3105
a(I157
I338
I134
tp3106
a(I156
I338
I134
tp3107
a(I155
I337
I133
tp3108
a(I154
I336
I133
tp3109
a(I153
I336
I132
tp3110
a(I152
I335
I131
tp3111
a(I151
I335
I131
tp3112
a(I150
I334
I130
tp3113
a(I149
I333
I129
tp3114
a(I148
I333
I129
tp3115
a(I147
I332
I128
tp3116
a(I146
I332
I127
tp3117
a(I145
I331
I127
tp3118
a(I144
I330
I126
tp3119
a(I143
I329
I125
tp3120
a(I142
I328
I125
tp3121
a(I141
I328
I124
tp3122
a(I140
I327
I124
tp3123
a(I139
I326
I123
tp3124
a(I138
I325
I122
tp3125
a(I137
I324
I122
tp3126
a(I136
I323
I121
tp3127
a(I135
I323
I121
tp3128
a(I135
I322
I121
tp3129
a(I134
I321
I120
tp3130
a(I134
I321
I120
tp3131
a(I133
I320
I119
tp3132
a(I132
I319
I119
tp3133
a(I131
I318
I118
tp3134
a(I130
I317
I117
tp3135
a(I130
I316
I117
tp3136
a(I129
I315
I116
tp3137
a(I129
I315
I116
tp3138
a(I128
I314
I116
tp3139
a(I127
I314
I115
tp3140
a(I126
I313
I114
tp3141
a(I125
I312
I113
tp3142
a(I125
I311
I113
tp3143
a(I124
I310
I112
tp3144
a(I124
I310
I112
tp3145
a(I123
I309
I111
tp3146
a(I122
I310
I110
tp3147
a(I122
I310
I110
tp3148
a(I123
I309
I111
tp3149
a(I122
I308
I110
tp3150
a(I121
I307
I109
tp3151
a(I121
I307
I109
tp3152
a(I120
I307
I108
tp3153
a(I120
I306
I108
tp3154
a(I119
I305
I107
tp3155
a(I119
I305
I107
tp3156
a(I119
I305
I106
tp3157
a(I118
I304
I105
tp3158
a(I117
I304
I104
tp3159
a(I117
I304
I103
tp3160
a(I116
I303
I102
tp3161
a(I115
I302
I101
tp3162
a(I115
I302
I100
tp3163
a(I114
I301
I99
tp3164
a(I114
I301
I98
tp3165
a(I113
I300
I97
tp3166
a(I113
I300
I96
tp3167
a(I112
I299
I95
tp3168
a(I112
I299
I94
tp3169
a(I112
I299
I93
tp3170
a(I111
I299
I92
tp3171
a(I111
I299
I91
tp3172
a(I111
I299
I90
tp3173
a(I110
I298
I89
tp3174
a(I110
I298
I88
tp3175
a(I110
I298
I87
tp3176
a(I110
I298
I86
tp3177
a(I109
I297
I85
tp3178
a(I109
I297
I84
tp3179
a(I109
I297
I83
tp3180
a(I109
I297
I82
tp3181
a(I109
I297
I81
tp3182
a(I109
I297
I80
tp3183
a(I108
I296
I79
tp3184
a(I108
I296
I78
tp3185
a(I108
I296
I77
tp3186
a(I108
I296
I76
tp3187
a(I108
I296
I75
tp3188
a(I108
I296
I74
tp3189
a(I108
I296
I73
tp3190
a(I108
I296
I72
tp3191
a(I108
I296
I71
tp3192
a(I108
I296
I70
tp3193
a(I108
I296
I69
tp3194
a(I108
I296
I68
tp3195
a(I108
I296
I67
tp3196
a(I109
I297
I66
tp3197
a(I109
I297
I65
tp3198
a(I109
I297
I64
tp3199
a(I109
I297
I63
tp3200
a(I109
I297
I62
tp3201
a(I109
I297
I61
tp3202
a(I109
I297
I60
tp3203
a(I110
I298
I59
tp3204
a(I110
I298
I58
tp3205
a(I110
I298
I57
tp3206
a(I110
I298
I56
tp3207
a(I110
I298
I55
tp3208
a(I111
I299
I54
tp3209
a(I111
I299
I53
tp3210
a(I111
I299
I52
tp3211
a(I111
I299
I51
tp3212
a(I112
I299
I50
tp3213
a(I112
I299
I49
tp3214
a(I112
I299
I48
tp3215
a(I113
I300
I47
tp3216
a(I113
I300
I46
tp3217
a(I113
I300
I45
tp3218
a(I114
I301
I44
tp3219
a(I114
I301
I43
tp3220
a(I114
I301
I42
tp3221
a(I115
I302
I41
tp3222
a(I115
I302
I40
tp3223
a(I115
I302
I39
tp3224
a(I116
I303
I38
tp3225
a(I116
I303
I37
tp3226
a(I117
I304
I36
tp3227
a(I117
I304
I35
tp3228
a(I118
I304
I34
tp3229
a(I118
I304
I33
tp3230
a(I118
I304
I32
tp3231
a(I119
I305
I31
tp3232
a(I119
I305
I30
tp3233
a(I120
I306
I29
tp3234
a(I120
I306
I28
tp3235
a(I121
I307
I27
tp3236
a(I121
I307
I26
tp3237
a(I122
I308
I25
tp3238
a(I122
I308
I24
tp3239
a(I123
I309
I23
tp3240
a(I123
I309
I22
tp3241
a(I124
I310
I21
tp3242
a(I125
I311
I20
tp3243
a(I125
I311
I19
tp3244
a(I124
I310
I18
tp3245
a(I123
I309
I19
tp3246
a(I122
I310
I20
tp3247
a(I122
I310
I20
tp3248
a(I123
I309
I19
tp3249
a(I122
I308
I20
tp3250
a(I121
I307
I21
tp3251
a(I121
I307
I21
tp3252
a(I120
I307
I22
tp3253
a(I120
I306
I22
tp3254
a(I119
I305
I23
tp3255
a(I119
I305
I23
tp3256
a(I118
I304
I24
tp3257
a(I117
I304
I25
tp3258
a(I117
I304
I26
tp3259
a(I116
I303
I27
tp3260
a(I115
I302
I28
tp3261
a(I114
I301
I29
tp3262
a(I113
I300
I30
tp3263
a(I113
I300
I31
tp3264
a(I112
I299
I32
tp3265
a(I111
I299
I33
tp3266
a(I110
I298
I34
tp3267
a(I109
I297
I35
tp3268
a(I109
I297
I36
tp3269
a(I108
I296
I37
tp3270
a(I107
I295
I38
tp3271
a(I107
I295
I39
tp3272
a(I106
I295
I40
tp3273
a(I105
I294
I41
tp3274
a(I105
I294
I42
tp3275
a(I104
I293
I43
tp3276
a(I103
I293
I44
tp3277
a(I103
I293
I45
tp3278
a(I102
I292
I46
tp3279
a(I101
I291
I47
tp3280
a(I101
I291
I48
tp3281
a(I100
I291
I49
tp3282
a(I100
I291
I50
tp3283
a(I99
I290
I51
tp3284
a(I98
I289
I52
tp3285
a(I97
I289
I53
tp3286
a(I97
I289
I54
tp3287
a(I96
I288
I55
tp3288
a(I96
I288
I56
tp3289
a(I95
I288
I57
tp3290
a(I95
I288
I58
tp3291
a(I94
I287
I59
tp3292
a(I94
I287
I60
tp3293
a(I93
I287
I61
tp3294
a(I93
I287
I62
tp3295
a(I93
I287
I63
tp3296
a(I92
I286
I64
tp3297
a(I92
I286
I65
tp3298
a(I92
I286
I66
tp3299
a(I91
I286
I67
tp3300
a(I91
I286
I68
tp3301
a(I91
I286
I69
tp3302
a(I90
I285
I70
tp3303
a(I90
I285
I71
tp3304
a(I90
I285
I72
tp3305
a(I90
I285
I73
tp3306
a(I89
I284
I74
tp3307
a(I89
I284
I75
tp3308
a(I89
I284
I76
tp3309
a(I89
I284
I77
tp3310
a(I89
I284
I78
tp3311
a(I89
I284
I79
tp3312
a(I89
I284
I80
tp3313
a(I89
I284
I81
tp3314
a(I89
I284
I82
tp3315
a(I88
I284
I83
tp3316
a(I88
I284
I84
tp3317
a(I88
I284
I85
tp3318
a(I89
I284
I86
tp3319
a(I89
I284
I87
tp3320
a(I89
I284
I88
tp3321
a(I89
I284
I89
tp3322
a(I89
I284
I90
tp3323
a(I89
I284
I91
tp3324
a(I89
I284
I92
tp3325
a(I89
I284
I93
tp3326
a(I89
I284
I94
tp3327
a(I90
I285
I95
tp3328
a(I90
I285
I96
tp3329
a(I90
I285
I97
tp3330
a(I90
I285
I98
tp3331
a(I90
I285
I99
tp3332
a(I91
I286
I100
tp3333
a(I91
I286
I101
tp3334
a(I91
I286
I102
tp3335
a(I92
I286
I103
tp3336
a(I92
I286
I104
tp3337
a(I92
I286
I105
tp3338
a(I93
I287
I106
tp3339
a(I93
I287
I107
tp3340
a(I93
I287
I108
tp3341
a(I94
I287
I109
tp3342
a(I94
I287
I110
tp3343
a(I95
I288
I111
tp3344
a(I95
I288
I112
tp3345
a(I96
I288
I113
tp3346
a(I96
I288
I114
tp3347
a(I97
I289
I115
tp3348
a(I97
I289
I116
tp3349
a(I98
I289
I117
tp3350
a(I98
I289
I118
tp3351
a(I99
I290
I119
tp3352
a(I100
I291
I120
tp3353
a(I100
I291
I121
tp3354
a(I101
I291
I122
tp3355
a(I101
I291
I123
tp3356
a(I102
I292
I124
tp3357
a(I103
I293
I125
tp3358
a(I103
I293
I126
tp3359
a(I104
I293
I127
tp3360
a(I105
I294
I128
tp3361
a(I106
I295
I129
tp3362
a(I106
I295
I130
tp3363
a(I107
I295
I131
tp3364
a(I108
I296
I132
tp3365
a(I109
I297
I133
tp3366
a(I110
I298
I134
tp3367
a(I110
I298
I135
tp3368
a(I111
I299
I136
tp3369
a(I112
I299
I137
tp3370
a(I113
I300
I138
tp3371
a(I114
I301
I139
tp3372
a(I115
I302
I140
tp3373
a(I116
I303
I141
tp3374
a(I117
I304
I142
tp3375
a(I118
I304
I143
tp3376
a(I118
I304
I144
tp3377
a(I119
I305
I145
tp3378
a(I120
I306
I146
tp3379
a(I121
I307
I147
tp3380
a(I122
I308
I148
tp3381
a(I123
I309
I149
tp3382
a(I124
I310
I149
tp3383
a(I125
I311
I150
tp3384
a(I125
I312
I150
tp3385
a(I126
I313
I150
tp3386
a(I126
I313
I150
tp3387
a(I127
I314
I151
tp3388
a(I128
I314
I152
tp3389
a(I129
I315
I153
tp3390
a(I130
I316
I154
tp3391
a(I130
I317
I154
tp3392
a(I131
I318
I155
tp3393
a(I131
I318
I155
tp3394
a(I132
I319
I156
tp3395
a(I133
I320
I157
tp3396
a(I134
I321
I158
tp3397
a(I135
I322
I159
tp3398
a(I136
I323
I160
tp3399
a(I137
I324
I161
tp3400
a(I138
I325
I162
tp3401
a(I139
I326
I163
tp3402
a(I140
I327
I164
tp3403
a(I141
I328
I165
tp3404
a(I142
I328
I166
tp3405
a(I143
I329
I167
tp3406
a(I144
I330
I168
tp3407
a(I145
I331
I169
tp3408
a(I146
I332
I170
tp3409
a(I147
I332
I171
tp3410
a(I148
I333
I172
tp3411
a(I149
I333
I173
tp3412
a(I150
I334
I174
tp3413
a(I151
I335
I175
tp3414
a(I152
I335
I176
tp3415
a(I153
I336
I177
tp3416
a(I154
I336
I178
tp3417
a(I155
I337
I179
tp3418
a(I156
I338
I180
tp3419
a(I157
I338
I181
tp3420
a(I158
I338
I182
tp3421
a(I159
I339
I183
tp3422
a(I160
I340
I184
tp3423
a(I161
I340
I185
tp3424
a(I162
I340
I186
tp3425
a(I163
I341
I187
tp3426
a(I164
I341
I188
tp3427
a(I164
I341
I189
tp3428
a(I165
I342
I190
tp3429
a(I166
I342
I191
tp3430
a(I167
I342
I192
tp3431
a(I168
I343
I193
tp3432
a(I168
I343
I194
tp3433
a(I169
I343
I195
tp3434
a(I170
I344
I196
tp3435
a(I171
I344
I197
tp3436
a(I171
I344
I198
tp3437
a(I172
I344
I199
tp3438
a(I173
I344
I200
tp3439
a(I173
I344
I201
tp3440
a(I174
I345
I202
tp3441
a(I174
I345
I203
tp3442
a(I175
I345
I204
tp3443
a(I175
I345
I205
tp3444
a(I176
I345
I206
tp3445
a(I176
I345
I207
tp3446
a(I176
I345
I208
tp3447
a(I177
I345
I209
tp3448
a(I177
I345
I210
tp3449
a(I177
I345
I211
tp3450
a(I178
I346
I212
tp3451
a(I178
I346
I213
tp3452
a(I178
I346
I214
tp3453
a(I178
I346
I215
tp3454
a(I178
I346
I216
tp3455
a(I179
I346
I217
tp3456
a(I179
I346
I218
tp3457
a(I179
I346
I219
tp3458
a(I179
I346
I220
tp3459
a(I179
I346
I221
tp3460
a(I179
I346
I222
tp3461
a(I179
I346
I223
tp3462
a(I179
I346
I224
tp3463
a(I179
I346
I225
tp3464
a(I179
I346
I226
tp3465
a(I178
I346
I227
tp3466
a(I178
I346
I228
tp3467
a(I178
I346
I229
tp3468
a(I177
I345
I230
tp3469
a(I177
I345
I231
tp3470
a(I176
I345
I232
tp3471
a(I176
I345
I233
tp3472
a(I176
I345
I234
tp3473
a(I175
I345
I235
tp3474
a(I175
I345
I236
tp3475
a(I174
I345
I237
tp3476
a(I174
I345
I238
tp3477
a(I173
I344
I239
tp3478
a(I173
I344
I240
tp3479
a(I172
I344
I241
tp3480
a(I172
I344
I242
tp3481
a(I171
I344
I243
tp3482
a(I171
I344
I244
tp3483
a(I171
I344
I245
tp3484
a(I170
I344
I246
tp3485
a(I170
I344
I247
tp3486
a(I169
I343
I248
tp3487
a(I169
I343
I249
tp3488
a(I169
I343
I250
tp3489
a(I168
I343
I251
tp3490
a(I168
I343
I252
tp3491
a(I168
I343
I253
tp3492
a(I167
I342
I254
tp3493
a(I167
I342
I255
tp3494
a(I167
I342
I256
tp3495
a(I166
I342
I257
tp3496
a(I166
I342
I258
tp3497
a(I166
I342
I259
tp3498
a(I165
I342
I260
tp3499
a(I165
I342
I261
tp3500
a(I165
I342
I262
tp3501
a(I165
I342
I263
tp3502
a(I164
I341
I264
tp3503
a(I164
I341
I265
tp3504
a(I164
I341
I266
tp3505
a(I164
I341
I267
tp3506
a(I163
I341
I268
tp3507
a(I163
I341
I269
tp3508
a(I163
I341
I270
tp3509
a(I163
I341
I271
tp3510
a(I163
I341
I272
tp3511
a(I162
I340
I273
tp3512
a(I162
I340
I274
tp3513
a(I162
I340
I275
tp3514
a(I162
I340
I276
tp3515
a(I162
I340
I277
tp3516
a(I162
I340
I278
tp3517
a(I162
I340
I279
tp3518
a(I162
I340
I280
tp3519
a(I162
I340
I281
tp3520
a(I162
I340
I282
tp3521
a(I161
I58
I283
tp3522
a(I160
I55
I284
tp3523
a(I160
I340
I285
tp3524
a(I160
I340
I286
tp3525
a(I160
I340
I287
tp3526
a(I160
I340
I288
tp3527
a(I160
I340
I289
tp3528
a(I160
I340
I290
tp3529
a(I160
I340
I291
tp3530
a(I160
I340
I292
tp3531
a(I160
I340
I293
tp3532
a(I160
I340
I294
tp3533
a(I160
I340
I295
tp3534
a(I160
I340
I296
tp3535
a(I160
I340
I297
tp3536
a(I160
I340
I298
tp3537
a(I160
I340
I299
tp3538
a(I160
I340
I300
tp3539
a(I160
I340
I301
tp3540
a(I160
I340
I302
tp3541
a(I160
I340
I303
tp3542
a(I160
I340
I304
tp3543
a(I160
I340
I305
tp3544
a(I161
I340
I306
tp3545
a(I161
I340
I307
tp3546
a(I161
I340
I308
tp3547
a(I161
I340
I309
tp3548
a(I161
I340
I310
tp3549
a(I161
I340
I311
tp3550
a(I161
I340
I312
tp3551
a(I162
I340
I313
tp3552
a(I162
I340
I314
tp3553
a(I162
I340
I315
tp3554
a(I162
I340
I316
tp3555
a(I162
I340
I317
tp3556
a(I163
I341
I318
tp3557
a(I163
I341
I319
tp3558
a(I163
I341
I320
tp3559
a(I163
I341
I321
tp3560
a(I164
I341
I322
tp3561
a(I164
I341
I323
tp3562
a(I164
I341
I324
tp3563
a(I165
I342
I325
tp3564
a(I165
I342
I326
tp3565
a(I165
I342
I327
tp3566
a(I166
I342
I328
tp3567
a(I166
I342
I329
tp3568
a(I166
I342
I330
tp3569
a(I167
I342
I331
tp3570
a(I168
I343
I332
tp3571
a(I168
I343
I333
tp3572
a(I168
I343
I334
tp3573
a(I168
I343
I335
tp3574
a(I168
I343
I336
tp3575
a(I169
I343
I337
tp3576
a(I169
I343
I338
tp3577
a(I170
I344
I339
tp3578
a(I170
I344
I340
tp3579
a(I171
I344
I341
tp3580
a(I171
I344
I342
tp3581
a(I172
I344
I343
tp3582
a(I172
I344
I344
tp3583
a(I173
I344
I345
tp3584
a(I174
I345
I346
tp3585
a(I174
I345
I347
tp3586
a(I175
I345
I348
tp3587
a(I175
I345
I349
tp3588
a(I176
I345
I350
tp3589
a(I177
I345
I351
tp3590
a(I177
I345
I352
tp3591
a(I178
I346
I353
tp3592
a(I179
I346
I354
tp3593
a(I179
I346
I355
tp3594
a(I180
I346
I356
tp3595
a(I181
I346
I357
tp3596
a(I181
I346
I358
tp3597
a(I182
I347
I359
tp3598
a(I183
I347
I360
tp3599
a(I184
I347
I361
tp3600
a(I184
I347
I362
tp3601
a(I185
I347
I363
tp3602
a(I186
I347
I364
tp3603
a(I187
I348
I365
tp3604
a(I188
I348
I366
tp3605
a(I189
I348
I366
tp3606
a(I190
I348
I367
tp3607
a(I191
I348
I368
tp3608
a(I192
I348
I369
tp3609
a(I193
I348
I370
tp3610
a(I194
I348
I371
tp3611
a(I195
I349
I372
tp3612
a(I196
I349
I373
tp3613
a(I197
I349
I374
tp3614
a(I198
I349
I375
tp3615
a(I199
I349
I376
tp3616
a(I200
I349
I377
tp3617
a(I201
I349
I378
tp3618
a(I202
I349
I379
tp3619
a(I203
I349
I380
tp3620
a(I204
I349
I380
tp3621
a(I205
I350
I381
tp3622
a(I206
I350
I382
tp3623
a(I207
I350
I383
tp3624
a(I208
I350
I384
tp3625
a(I209
I350
I385
tp3626
a(I210
I350
I386
tp3627
a(I211
I350
I387
tp3628
a(I212
I350
I388
tp3629
a(I213
I350
I389
tp3630
a(I213
I350
I390
tp3631
a(I214
I350
I391
tp3632
a(I215
I350
I392
tp3633
a(I216
I350
I392
tp3634
a(I217
I350
I393
tp3635
a(I218
I350
I393
tp3636
a(I219
I350
I394
tp3637
a(I220
I350
I395
tp3638
a(I221
I350
I396
tp3639
a(I221
I350
I397
tp3640
a(I222
I350
I397
tp3641
a(I222
I350
I398
tp3642
a(I223
I350
I399
tp3643
a(I224
I350
I400
tp3644
a(I225
I350
I401
tp3645
a(I226
I350
I402
tp3646
a(I226
I350
I403
tp3647
a(I227
I350
I404
tp3648
a(I228
I350
I405
tp3649
a(I229
I350
I406
tp3650
a(I229
I350
I407
tp3651
a(I230
I350
I408
tp3652
a(I230
I350
I409
tp3653
a(I231
I351
I410
tp3654
a(I231
I351
I411
tp3655
a(I232
I351
I412
tp3656
a(I232
I351
I413
tp3657
a(I232
I351
I414
tp3658
a(I233
I351
I415
tp3659
a(I233
I351
I416
tp3660
a(I233
I351
I417
tp3661
a(I233
I351
I418
tp3662
a(I233
I351
I419
tp3663
a(I233
I351
I420
tp3664
a(I233
I351
I421
tp3665
a(I233
I351
I422
tp3666
a(I232
I351
I423
tp3667
a(I232
I351
I424
tp3668
a(I232
I351
I425
tp3669
a(I231
I351
I426
tp3670
a(I230
I350
I427
tp3671
a(I230
I350
I428
tp3672
a(I229
I350
I429
tp3673
a(I228
I350
I430
tp3674
a(I227
I350
I431
tp3675
a(I226
I350
I432
tp3676
a(I225
I350
I433
tp3677
a(I225
I350
I434
tp3678
a(I224
I350
I435
tp3679
a(I223
I350
I436
tp3680
a(I223
I350
I437
tp3681
a(I223
I350
I438
tp3682
a(I223
I350
I439
tp3683
a(I223
I350
I440
tp3684
a(I223
I350
I441
tp3685
a(I223
I350
I442
tp3686
a(I223
I350
I443
tp3687
a(I224
I350
I444
tp3688
a(I225
I350
I445
tp3689
a(I226
I350
I446
tp3690
a(I227
I350
I446
tp3691
a(I228
I350
I447
tp3692
a(I229
I350
I447
tp3693
a(I230
I350
I447
tp3694
a(I231
I351
I447
tp3695
a(I232
I351
I446
tp3696
a(I233
I351
I446
tp3697
a(I234
I351
I446
tp3698
a(I235
I351
I445
tp3699
a(I236
I351
I445
tp3700
a(I237
I352
I445
tp3701
a(I238
I352
I444
tp3702
a(I239
I352
I444
tp3703
a(I240
I353
I443
tp3704
a(I241
I353
I443
tp3705
a(I242
I354
I442
tp3706
a(I242
I355
I442
tp3707
a(I243
I356
I441
tp3708
a(I243
I356
I441
tp3709
a(I243
I356
I441
tp3710
a(I242
I355
I442
tp3711
a(I242
I354
I442
tp3712
a(I241
I353
I443
tp3713
a(I240
I353
I443
tp3714
a(I239
I352
I444
tp3715
a(I238
I352
I444
tp3716
a(I237
I352
I445
tp3717
a(I236
I351
I445
tp3718
a(I235
I351
I445
tp3719
a(I234
I351
I446
tp3720
a(I233
I351
I446
tp3721
a(I232
I351
I446
tp3722
a(I231
I351
I447
tp3723
a(I230
I350
I447
tp3724
a(I229
I350
I447
tp3725
a(I228
I350
I447
tp3726
a(I227
I350
I446
tp3727
a(I226
I350
I446
tp3728
a(I225
I350
I445
tp3729
a(I224
I350
I444
tp3730
a(I223
I350
I443
tp3731
a(I223
I350
I442
tp3732
a(I223
I350
I441
tp3733
a(I223
I350
I440
tp3734
a(I223
I350
I439
tp3735
a(I223
I350
I438
tp3736
a(I223
I350
I437
tp3737
a(I223
I350
I436
tp3738
a(I224
I350
I435
tp3739
a(I225
I350
I434
tp3740
a(I225
I350
I433
tp3741
a(I226
I350
I432
tp3742
a(I227
I350
I431
tp3743
a(I228
I350
I430
tp3744
a(I229
I350
I429
tp3745
a(I230
I350
I428
tp3746
a(I230
I350
I427
tp3747
a(I231
I351
I426
tp3748
a(I232
I351
I425
tp3749
a(I232
I351
I424
tp3750
a(I232
I351
I423
tp3751
a(I233
I351
I422
tp3752
a(I233
I351
I421
tp3753
a(I233
I351
I420
tp3754
a(I233
I351
I419
tp3755
a(I233
I351
I418
tp3756
a(I233
I351
I417
tp3757
a(I233
I351
I416
tp3758
a(I233
I351
I415
tp3759
a(I232
I351
I414
tp3760
a(I232
I351
I413
tp3761
a(I232
I351
I412
tp3762
a(I231
I351
I411
tp3763
a(I231
I351
I410
tp3764
a(I230
I350
I409
tp3765
a(I230
I350
I408
tp3766
a(I229
I350
I407
tp3767
a(I229
I350
I406
tp3768
a(I228
I350
I405
tp3769
a(I227
I350
I404
tp3770
a(I226
I350
I403
tp3771
a(I226
I350
I402
tp3772
a(I225
I350
I401
tp3773
a(I224
I350
I400
tp3774
a(I223
I350
I399
tp3775
a(I222
I350
I398
tp3776
a(I221
I350
I397
tp3777
a(I221
I350
I396
tp3778
a(I220
I350
I395
tp3779
a(I219
I350
I394
tp3780
a(I218
I350
I393
tp3781
a(I217
I350
I393
tp3782
a(I216
I350
I392
tp3783
a(I215
I350
I392
tp3784
a(I214
I350
I391
tp3785
a(I213
I350
I390
tp3786
a(I213
I350
I389
tp3787
a(I212
I350
I388
tp3788
a(I211
I350
I387
tp3789
a(I210
I350
I386
tp3790
a(I209
I350
I385
tp3791
a(I208
I350
I384
tp3792
a(I207
I350
I383
tp3793
a(I206
I350
I382
tp3794
a(I205
I350
I381
tp3795
a(I204
I349
I380
tp3796
a(I203
I349
I380
tp3797
a(I202
I349
I379
tp3798
a(I201
I349
I378
tp3799
a(I200
I349
I377
tp3800
a(I199
I348
I376
tp3801
a(I199
I347
I376
tp3802
a(I199
I346
I376
tp3803
a(I200
I345
I377
tp3804
a(I200
I344
I377
tp3805
a(I200
I343
I377
tp3806
a(I200
I342
I377
tp3807
a(I200
I341
I377
tp3808
a(I200
I340
I377
tp3809
a(I201
I339
I378
tp3810
a(I201
I338
I378
tp3811
a(I202
I337
I379
tp3812
a(I202
I336
I379
tp3813
a(I202
I335
I379
tp3814
a(I203
I334
I380
tp3815
a(I203
I333
I380
tp3816
a(I204
I332
I380
tp3817
a(I204
I331
I380
tp3818
a(I204
I330
I380
tp3819
a(I205
I329
I381
tp3820
a(I205
I328
I381
tp3821
a(I205
I327
I381
tp3822
a(I205
I326
I381
tp3823
a(I206
I325
I382
tp3824
a(I206
I324
I382
tp3825
a(I207
I323
I383
tp3826
a(I207
I322
I383
tp3827
a(I208
I321
I384
tp3828
a(I208
I320
I384
tp3829
a(I209
I319
I385
tp3830
a(I209
I318
I385
tp3831
a(I210
I317
I386
tp3832
a(I210
I316
I386
tp3833
a(I210
I315
I386
tp3834
a(I210
I314
I386
tp3835
a(I211
I313
I387
tp3836
a(I211
I312
I387
tp3837
a(I212
I311
I388
tp3838
a(I212
I310
I388
tp3839
a(I213
I309
I389
tp3840
a(I213
I308
I390
tp3841
a(I214
I307
I391
tp3842
a(I214
I306
I391
tp3843
a(I215
I305
I392
tp3844
a(I215
I304
I392
tp3845
a(I215
I303
I392
tp3846
a(I216
I302
I392
tp3847
a(I217
I301
I393
tp3848
a(I217
I300
I393
tp3849
a(I218
I299
I393
tp3850
a(I218
I298
I393
tp3851
a(I219
I297
I394
tp3852
a(I220
I296
I395
tp3853
a(I220
I295
I395
tp3854
a(I220
I294
I395
tp3855
a(I221
I293
I396
tp3856
a(I222
I292
I397
tp3857
a(I222
I291
I398
tp3858
a(I223
I290
I399
tp3859
a(I224
I289
I400
tp3860
a(I224
I288
I400
tp3861
a(I225
I287
I401
tp3862
a(I225
I286
I401
tp3863
a(I226
I285
I402
tp3864
a(I226
I285
I403
tp3865
a(I227
I284
I404
tp3866
a(I227
I283
I404
tp3867
a(I228
I282
I405
tp3868
a(I229
I281
I406
tp3869
a(I229
I281
I407
tp3870
a(I230
I280
I408
tp3871
a(I230
I279
I409
tp3872
a(I231
I278
I410
tp3873
a(I231
I277
I411
tp3874
a(I232
I276
I412
tp3875
a(I232
I276
I413
tp3876
a(I232
I276
I414
tp3877
a(I233
I275
I415
tp3878
a(I233
I275
I416
tp3879
a(I233
I275
I417
tp3880
a(I233
I275
I418
tp3881
a(I233
I275
I419
tp3882
a(I233
I275
I420
tp3883
a(I233
I275
I421
tp3884
a(I233
I275
I422
tp3885
a(I232
I276
I423
tp3886
a(I232
I276
I424
tp3887
a(I232
I276
I425
tp3888
a(I231
I277
I426
tp3889
a(I231
I278
I426
tp3890
a(I230
I279
I427
tp3891
a(I230
I280
I428
tp3892
a(I229
I281
I429
tp3893
a(I228
I282
I430
tp3894
a(I227
I283
I431
tp3895
a(I227
I284
I431
tp3896
a(I226
I285
I432
tp3897
a(I225
I286
I433
tp3898
a(I225
I287
I434
tp3899
a(I224
I288
I435
tp3900
a(I224
I289
I435
tp3901
a(I223
I290
I436
tp3902
a(I223
I290
I437
tp3903
a(I223
I290
I438
tp3904
a(I223
I290
I439
tp3905
a(I223
I290
I440
tp3906
a(I223
I290
I441
tp3907
a(I223
I290
I442
tp3908
a(I223
I290
I443
tp3909
a(I224
I289
I444
tp3910
a(I224
I288
I444
tp3911
a(I225
I287
I445
tp3912
a(I225
I286
I445
tp3913
a(I226
I285
I446
tp3914
a(I227
I284
I446
tp3915
a(I227
I283
I446
tp3916
a(I228
I282
I447
tp3917
a(I229
I281
I447
tp3918
a(I230
I280
I447
tp3919
a(I230
I279
I447
tp3920
a(I231
I278
I447
tp3921
a(I231
I277
I447
tp3922
a(I232
I276
I446
tp3923
a(I233
I275
I446
tp3924
a(I234
I274
I446
tp3925
a(I235
I273
I445
tp3926
a(I235
I272
I445
tp3927
a(I236
I271
I445
tp3928
a(I237
I270
I445
tp3929
a(I238
I269
I444
tp3930
a(I239
I268
I444
tp3931
a(I240
I267
I443
tp3932
a(I240
I266
I443
tp3933
a(I241
I265
I443
tp3934
a(I242
I264
I442
tp3935
a(I243
I263
I441
tp3936
a(I244
I262
I441
tp3937
a(I244
I262
I441
tp3938
a(I245
I261
I440
tp3939
a(I246
I260
I439
tp3940
a(I247
I259
I439
tp3941
a(I248
I258
I438
tp3942
a(I249
I257
I437
tp3943
a(I250
I256
I437
tp3944
a(I251
I255
I436
tp3945
a(I252
I254
I435
tp3946
a(I253
I254
I434
tp3947
a(I254
I320
I433
tp3948
a(I255
I332
I432
tp3949
a(I255
I314
I431
tp3950
a(I256
I312
I430
tp3951
a(I257
I310
I429
tp3952
a(I258
I308
I428
tp3953
a(I259
I306
I427
tp3954
a(I260
I265
I426
tp3955
a(I261
I262
I425
tp3956
a(I262
I260
I424
tp3957
a(I263
I290
I423
tp3958
a(I263
I259
I422
tp3959
a(I264
I258
I421
tp3960
a(I265
I256
I420
tp3961
a(I266
I255
I419
tp3962
a(I267
I254
I418
tp3963
a(I268
I253
I417
tp3964
a(I269
I252
I416
tp3965
a(I270
I250
I416
tp3966
a(I271
I249
I415
tp3967
a(I272
I248
I415
tp3968
a(I273
I248
I414
tp3969
a(I274
I239
I413
tp3970
a(I275
I238
I412
tp3971
a(I276
I238
I411
tp3972
a(I277
I237
I410
tp3973
a(I278
I237
I410
tp3974
a(I279
I237
I409
tp3975
a(I280
I236
I409
tp3976
a(I281
I235
I409
tp3977
a(I282
I235
I408
tp3978
a(I283
I235
I408
tp3979
a(I284
I234
I407
tp3980
a(I285
I234
I407
tp3981
a(I286
I233
I406
tp3982
a(I287
I233
I406
tp3983
a(I288
I233
I406
tp3984
a(I289
I232
I405
tp3985
a(I290
I232
I405
tp3986
a(I291
I231
I405
tp3987
a(I292
I231
I404
tp3988
a(I293
I231
I404
tp3989
a(I294
I231
I404
tp3990
a(I295
I230
I404
tp3991
a(I296
I230
I403
tp3992
a(I297
I230
I403
tp3993
a(I298
I229
I403
tp3994
a(I299
I229
I403
tp3995
a(I300
I229
I403
tp3996
a(I301
I229
I403
tp3997
a(I302
I228
I403
tp3998
a(I303
I228
I403
tp3999
a(I304
I228
I403
tp4000
a(I305
I228
I403
tp4001
a(I306
I228
I403
tp4002
a(I307
I227
I403
tp4003
a(I308
I227
I403
tp4004
a(I309
I227
I403
tp4005
a(I310
I227
I403
tp4006
a(I311
I227
I404
tp4007
a(I312
I227
I404
tp4008
a(I313
I226
I405
tp4009
a(I314
I226
I406
tp4010
a(I315
I226
I407
tp4011
a(I315
I226
I408
tp4012
a(I315
I226
I409
tp4013
a(I314
I226
I410
tp4014
a(I314
I226
I411
tp4015
a(I313
I226
I412
tp4016
a(I312
I227
I413
tp4017
a(I311
I227
I414
tp4018
a(I310
I227
I414
tp4019
a(I309
I227
I415
tp4020
a(I308
I227
I415
tp4021
a(I307
I227
I416
tp4022
a(I306
I228
I416
tp4023
a(I305
I228
I416
tp4024
a(I304
I228
I417
tp4025
a(I303
I228
I417
tp4026
a(I302
I228
I417
tp4027
a(I301
I229
I417
tp4028
a(I300
I229
I417
tp4029
a(I299
I229
I418
tp4030
a(I298
I229
I418
tp4031
a(I297
I230
I418
tp4032
a(I296
I230
I418
tp4033
a(I295
I230
I418
tp4034
a(I294
I231
I418
tp4035
a(I293
I231
I417
tp4036
a(I292
I231
I417
tp4037
a(I291
I231
I417
tp4038
a(I290
I232
I417
tp4039
a(I289
I232
I417
tp4040
a(I288
I233
I417
tp4041
a(I287
I233
I417
tp4042
a(I286
I233
I417
tp4043
a(I285
I234
I417
tp4044
a(I284
I234
I416
tp4045
a(I283
I235
I416
tp4046
a(I282
I235
I416
tp4047
a(I281
I235
I416
tp4048
a(I280
I236
I415
tp4049
a(I279
I237
I415
tp4050
a(I278
I237
I415
tp4051
a(I277
I237
I415
tp4052
a(I276
I238
I415
tp4053
a(I275
I238
I414
tp4054
a(I274
I239
I413
tp4055
a(I273
I240
I412
tp4056
a(I272
I240
I412
tp4057
a(I271
I240
I412
tp4058
a(I270
I241
I412
tp4059
a(I269
I242
I412
tp4060
a(I268
I242
I412
tp4061
a(I267
I243
I411
tp4062
a(I266
I244
I411
tp4063
a(I265
I244
I410
tp4064
a(I264
I245
I410
tp4065
a(I263
I246
I409
tp4066
a(I262
I246
I409
tp4067
a(I261
I247
I408
tp4068
a(I260
I248
I407
tp4069
a(I259
I249
I407
tp4070
a(I258
I249
I406
tp4071
a(I257
I250
I405
tp4072
a(I256
I251
I404
tp4073
a(I255
I252
I403
tp4074
a(I254
I253
I402
tp4075
a(I254
I253
I401
tp4076
a(I253
I254
I400
tp4077
a(I252
I254
I399
tp4078
a(I251
I255
I398
tp4079
a(I251
I255
I397
tp4080
a(I250
I256
I396
tp4081
a(I249
I257
I395
tp4082
a(I249
I257
I394
tp4083
a(I248
I258
I393
tp4084
a(I248
I258
I392
tp4085
a(I247
I259
I391
tp4086
a(I247
I259
I390
tp4087
a(I246
I260
I389
tp4088
a(I246
I260
I388
tp4089
a(I245
I261
I387
tp4090
a(I245
I261
I386
tp4091
a(I244
I262
I385
tp4092
a(I244
I262
I384
tp4093
a(I243
I263
I383
tp4094
a(I243
I263
I382
tp4095
a(I243
I263
I381
tp4096
a(I242
I264
I380
tp4097
a(I242
I264
I379
tp4098
a(I241
I265
I378
tp4099
a(I241
I265
I377
tp4100
a(I241
I265
I376
tp4101
a(I240
I266
I375
tp4102
a(I240
I266
I374
tp4103
a(I240
I267
I373
tp4104
a(I239
I268
I372
tp4105
a(I239
I268
I371
tp4106
a(I239
I268
I370
tp4107
a(I238
I269
I369
tp4108
a(I238
I269
I368
tp4109
a(I238
I269
I367
tp4110
a(I237
I270
I366
tp4111
a(I237
I270
I365
tp4112
a(I237
I270
I364
tp4113
a(I236
I271
I363
tp4114
a(I235
I272
I362
tp4115
a(I235
I273
I361
tp4116
a(I234
I274
I360
tp4117
a(I234
I274
I359
tp4118
a(I234
I274
I358
tp4119
a(I233
I275
I357
tp4120
a(I233
I275
I356
tp4121
a(I232
I276
I355
tp4122
a(I232
I276
I354
tp4123
a(I232
I276
I353
tp4124
a(I231
I277
I352
tp4125
a(I231
I278
I351
tp4126
a(I230
I279
I350
tp4127
a(I230
I280
I349
tp4128
a(I229
I281
I348
tp4129
a(I229
I281
I347
tp4130
a(I228
I282
I346
tp4131
a(I228
I282
I345
tp4132
a(I227
I283
I344
tp4133
a(I226
I285
I343
tp4134
a(I226
I285
I342
tp4135
a(I225
I286
I341
tp4136
a(I224
I288
I340
tp4137
a(I224
I289
I339
tp4138
a(I223
I290
I338
tp4139
a(I222
I291
I337
tp4140
a(I221
I293
I336
tp4141
a(I220
I294
I335
tp4142
a(I219
I297
I334
tp4143
a(I218
I298
I334
tp4144
a(I217
I300
I333
tp4145
a(I216
I302
I332
tp4146
a(I215
I303
I332
tp4147
a(I214
I306
I331
tp4148
a(I213
I308
I331
tp4149
a(I212
I310
I330
tp4150
a(I211
I312
I330
tp4151
a(I210
I314
I330
tp4152
a(I209
I318
I330
tp4153
a(I208
I320
I329
tp4154
a(I207
I322
I329
tp4155
a(I206
I324
I329
tp4156
a(I205
I326
I329
tp4157
a(I204
I330
I329
tp4158
a(I203
I333
I329
tp4159
a(I202
I335
I329
tp4160
a(I201
I338
I329
tp4161
a(I200
I340
I329
tp4162
a(I199
I346
I329
tp4163
a(I198
I349
I330
tp4164
a(I197
I349
I330
tp4165
a(I196
I349
I330
tp4166
a(I195
I349
I330
tp4167
a(I194
I348
I330
tp4168
a(I193
I348
I330
tp4169
a(I192
I348
I331
tp4170
a(I191
I348
I331
tp4171
a(I190
I348
I331
tp4172
a(I189
I348
I331
tp4173
a(I188
I348
I331
tp4174
a(I187
I348
I331
tp4175
a(I186
I347
I331
tp4176
a(I185
I347
I331
tp4177
a(I184
I347
I332
tp4178
a(I183
I347
I332
tp4179
a(I182
I347
I332
tp4180
a(I181
I346
I332
tp4181
a(I180
I346
I332
tp4182
a(I179
I346
I332
tp4183
a(I178
I346
I332
tp4184
a(I177
I345
I333
tp4185
a(I176
I345
I333
tp4186
a(I175
I345
I333
tp4187
a(I174
I345
I333
tp4188
a(I173
I344
I333
tp4189
a(I172
I344
I333
tp4190
a(I171
I344
I333
tp4191
a(I170
I344
I334
tp4192
a(I169
I343
I334
tp4193
a(I168
I343
I334
tp4194
a(I167
I342
I334
tp4195
a(I166
I342
I334
tp4196
a(I165
I342
I334
tp4197
a(I164
I341
I334
tp4198
a(I163
I341
I334
tp4199
a(I162
I340
I334
tp4200
a(I161
I340
I334
tp4201
a(I160
I340
I334
tp4202
a(I159
I339
I334
tp4203
a(I158
I338
I334
tp4204
a(I157
I338
I334
tp4205
a(I156
I338
I334
tp4206
a(I155
I337
I334
tp4207
a(I154
I336
I334
tp4208
a(I153
I336
I335
tp4209
a(I152
I335
I335
tp4210
a(I151
I335
I335
tp4211
a(I150
I334
I335
tp4212
a(I149
I333
I335
tp4213
a(I148
I333
I335
tp4214
a(I147
I332
I335
tp4215
a(I146
I332
I335
tp4216
a(I145
I331
I335
tp4217
a(I144
I330
I334
tp4218
a(I143
I329
I334
tp4219
a(I142
I328
I334
tp4220
a(I141
I328
I334
tp4221
a(I140
I327
I334
tp4222
a(I139
I326
I334
tp4223
a(I138
I325
I334
tp4224
a(I137
I324
I334
tp4225
a(I136
I323
I334
tp4226
a(I135
I323
I334
tp4227
a(I135
I322
I334
tp4228
a(I134
I321
I334
tp4229
a(I134
I321
I334
tp4230
a(I133
I320
I333
tp4231
a(I132
I319
I333
tp4232
a(I131
I318
I333
tp4233
a(I130
I317
I333
tp4234
a(I130
I316
I333
tp4235
a(I129
I315
I333
tp4236
a(I129
I315
I333
tp4237
a(I128
I314
I333
tp4238
a(I127
I314
I332
tp4239
a(I126
I313
I332
tp4240
a(I125
I312
I332
tp4241
a(I125
I311
I332
tp4242
a(I124
I310
I332
tp4243
a(I124
I310
I332
tp4244
a(I123
I309
I331
tp4245
a(I122
I310
I331
tp4246
a(I122
I310
I331
tp4247
a(I123
I309
I331
tp4248
a(I122
I308
I331
tp4249
a(I121
I307
I331
tp4250
a(I121
I307
I331
tp4251
a(I120
I307
I331
tp4252
a(I120
I306
I331
tp4253
a(I119
I305
I330
tp4254
a(I119
I305
I330
tp4255
a(I118
I304
I330
tp4256
a(I117
I304
I330
tp4257
a(I116
I303
I329
tp4258
a(I115
I302
I328
tp4259
a(I114
I301
I327
tp4260
a(I113
I300
I326
tp4261
a(I112
I299
I325
tp4262
a(I111
I299
I324
tp4263
a(I111
I299
I323
tp4264
a(I111
I299
I322
tp4265
a(I110
I298
I321
tp4266
a(I110
I298
I320
tp4267
a(I110
I298
I319
tp4268
a(I110
I298
I318
tp4269
a(I110
I298
I317
tp4270
a(I111
I299
I316
tp4271
a(I111
I299
I315
tp4272
a(I112
I299
I314
tp4273
a(I112
I299
I313
tp4274
a(I113
I300
I312
tp4275
a(I114
I301
I311
tp4276
a.