(lp0
(I66
I90
I46
tp1
a(I67
I90
I46
tp2
a(I68
I90
I46
tp3
a(I69
I90
I46
tp4
a(I70
I90
I46
tp5
a(I71
I90
I46
tp6
a(I72
I90
I46
tp7
a(I73
I90
I46
tp8
a(I74
I90
I46
tp9
a(I75
I90
I47
tp10
a(I76
I90
I47
tp11
a(I77
I90
I47
tp12
a(I78
I91
I47
tp13
a(I79
I91
I47
tp14
a(I80
I91
I47
tp15
a(I81
I91
I48
tp16
a(I82
I91
I48
tp17
a(I83
I91
I48
tp18
a(I84
I91
I49
tp19
a(I85
I91
I49
tp20
a(I86
I91
I49
tp21
a(I87
I91
I50
tp22
a(I88
I91
I50
tp23
a(I89
I91
I51
tp24
a(I90
I91
I51
tp25
a(I91
I91
I52
tp26
a(I92
I91
I53
tp27
a(I93
I90
I53
tp28
a(I94
I89
I53
tp29
a(I95
I89
I54
tp30
a(I96
I89
I55
tp31
a(I97
I89
I55
tp32
a(I98
I88
I56
tp33
a(I99
I88
I56
tp34
a(I100
I88
I57
tp35
a(I101
I87
I58
tp36
a(I102
I87
I59
tp37
a(I103
I86
I59
tp38
a(I104
I85
I60
tp39
a(I105
I84
I61
tp40
a(I106
I83
I62
tp41
a(I107
I82
I62
tp42
a(I108
I81
I63
tp43
a(I108
I80
I63
tp44
a(I109
I79
I65
tp45
a(I109
I78
I65
tp46
a(I110
I77
I65
tp47
a(I111
I76
I66
tp48
a(I111
I75
I66
tp49
a(I112
I74
I67
tp50
a(I112
I73
I67
tp51
a(I113
I72
I69
tp52
a(I113
I71
I69
tp53
a(I114
I70
I69
tp54
a(I114
I69
I69
tp55
a(I115
I68
I70
tp56
a(I115
I67
I70
tp57
a(I116
I66
I71
tp58
a(I116
I65
I71
tp59
a(I117
I64
I73
tp60
a(I117
I63
I73
tp61
a(I117
I62
I73
tp62
a(I118
I61
I74
tp63
a(I118
I60
I74
tp64
a(I118
I59
I74
tp65
a(I119
I58
I75
tp66
a(I119
I57
I75
tp67
a(I119
I56
I75
tp68
a(I120
I55
I76
tp69
a(I120
I54
I76
tp70
a(I120
I53
I76
tp71
a(I120
I52
I76
tp72
a(I121
I51
I79
tp73
a(I121
I50
I79
tp74
a(I122
I49
I80
tp75
a(I122
I48
I80
tp76
a(I122
I47
I80
tp77
a(I122
I46
I80
tp78
a(I122
I45
I80
tp79
a(I122
I44
I80
tp80
a(I122
I43
I80
tp81
a(I122
I42
I80
tp82
a(I122
I41
I80
tp83
a(I122
I40
I80
tp84
a(I122
I39
I80
tp85
a(I121
I38
I79
tp86
a(I121
I37
I79
tp87
a(I121
I36
I79
tp88
a(I121
I35
I79
tp89
a(I120
I34
I78
tp90
a(I120
I33
I78
tp91
a(I119
I32
I75
tp92
a(I119
I31
I75
tp93
a(I118
I30
I74
tp94
a(I118
I29
I74
tp95
a(I117
I28
I73
tp96
a(I116
I27
I72
tp97
a(I115
I26
I70
tp98
a(I114
I25
I69
tp99
a(I113
I24
I69
tp100
a(I112
I24
I68
tp101
a(I111
I23
I66
tp102
a(I110
I22
I65
tp103
a(I109
I22
I65
tp104
a(I108
I21
I64
tp105
a(I107
I21
I62
tp106
a(I106
I20
I62
tp107
a(I105
I20
I61
tp108
a(I104
I20
I61
tp109
a(I103
I19
I59
tp110
a(I102
I19
I59
tp111
a(I101
I19
I58
tp112
a(I100
I19
I57
tp113
a(I99
I18
I56
tp114
a(I98
I18
I56
tp115
a(I97
I18
I55
tp116
a(I96
I18
I55
tp117
a(I95
I17
I54
tp118
a(I94
I17
I53
tp119
a(I93
I17
I53
tp120
a(I92
I17
I53
tp121
a(I91
I17
I52
tp122
a(I90
I17
I51
tp123
a(I89
I17
I51
tp124
a(I88
I17
I50
tp125
a(I87
I17
I50
tp126
a(I86
I17
I49
tp127
a(I85
I17
I49
tp128
a(I84
I16
I49
tp129
a(I83
I16
I48
tp130
a(I82
I16
I48
tp131
a(I81
I16
I48
tp132
a(I80
I16
I47
tp133
a(I79
I16
I47
tp134
a(I78
I16
I47
tp135
a(I77
I16
I47
tp136
a(I76
I16
I47
tp137
a(I75
I16
I47
tp138
a(I74
I17
I46
tp139
a(I73
I17
I46
tp140
a(I72
I17
I46
tp141
a(I71
I17
I46
tp142
a(I70
I17
I46
tp143
a(I69
I17
I46
tp144
a(I68
I17
I46
tp145
a(I67
I17
I46
tp146
a(I66
I17
I46
tp147
a(I65
I17
I46
tp148
a(I64
I17
I46
tp149
a(I63
I17
I47
tp150
a(I62
I18
I47
tp151
a(I61
I18
I47
tp152
a(I60
I18
I47
tp153
a(I59
I18
I47
tp154
a(I58
I18
I47
tp155
a(I57
I18
I47
tp156
a(I56
I19
I48
tp157
a(I55
I19
I48
tp158
a(I54
I19
I48
tp159
a(I53
I19
I49
tp160
a(I52
I20
I49
tp161
a(I51
I20
I50
tp162
a(I50
I20
I50
tp163
a(I49
I21
I50
tp164
a(I48
I21
I51
tp165
a(I47
I21
I52
tp166
a(I46
I22
I52
tp167
a(I45
I22
I52
tp168
a(I44
I23
I53
tp169
a(I43
I23
I54
tp170
a(I42
I24
I54
tp171
a(I41
I25
I55
tp172
a(I40
I26
I55
tp173
a(I39
I27
I56
tp174
a(I38
I28
I57
tp175
a(I37
I29
I58
tp176
a(I36
I30
I58
tp177
a(I35
I31
I60
tp178
a(I35
I32
I60
tp179
a(I34
I33
I60
tp180
a(I34
I34
I60
tp181
a(I33
I35
I61
tp182
a(I33
I36
I61
tp183
a(I33
I37
I61
tp184
a(I32
I38
I62
tp185
a(I32
I39
I62
tp186
a(I32
I40
I62
tp187
a(I31
I41
I63
tp188
a(I31
I42
I63
tp189
a(I31
I43
I63
tp190
a(I32
I44
I62
tp191
a(I32
I45
I62
tp192
a(I32
I46
I62
tp193
a(I32
I47
I62
tp194
a(I33
I48
I61
tp195
a(I33
I49
I61
tp196
a(I33
I50
I61
tp197
a(I33
I51
I61
tp198
a(I34
I52
I60
tp199
a(I34
I53
I60
tp200
a(I34
I54
I60
tp201
a(I34
I55
I60
tp202
a(I35
I56
I60
tp203
a(I35
I57
I60
tp204
a(I35
I58
I60
tp205
a(I36
I59
I59
tp206
a(I36
I60
I59
tp207
a(I37
I61
I58
tp208
a(I37
I62
I58
tp209
a(I37
I63
I58
tp210
a(I38
I64
I57
tp211
a(I38
I65
I57
tp212
a(I39
I66
I56
tp213
a(I39
I67
I56
tp214
a(I40
I68
I55
tp215
a(I40
I69
I55
tp216
a(I41
I70
I55
tp217
a(I41
I71
I55
tp218
a(I41
I72
I55
tp219
a(I42
I73
I54
tp220
a(I42
I74
I54
tp221
a(I43
I75
I54
tp222
a(I43
I76
I54
tp223
a(I44
I77
I53
tp224
a(I44
I78
I53
tp225
a(I44
I79
I53
tp226
a(I45
I80
I52
tp227
a(I45
I81
I52
tp228
a(I45
I82
I52
tp229
a(I46
I83
I52
tp230
a(I46
I84
I52
tp231
a(I46
I85
I52
tp232
a(I46
I86
I52
tp233
a(I46
I87
I52
tp234
a(I47
I87
I52
tp235
a(I47
I88
I52
tp236
a(I47
I89
I52
tp237
a(I47
I90
I52
tp238
a(I47
I91
I52
tp239
a(I47
I92
I52
tp240
a(I47
I93
I52
tp241
a(I48
I94
I51
tp242
a(I48
I95
I51
tp243
a(I48
I96
I51
tp244
a(I48
I97
I51
tp245
a(I48
I98
I51
tp246
a(I48
I99
I51
tp247
a(I48
I100
I51
tp248
a(I49
I101
I50
tp249
a(I49
I102
I50
tp250
a(I49
I103
I50
tp251
a(I50
I104
I50
tp252
a(I50
I105
I50
tp253
a(I50
I106
I50
tp254
a(I51
I107
I50
tp255
a(I51
I108
I50
tp256
a(I52
I109
I49
tp257
a(I52
I110
I49
tp258
a(I53
I111
I49
tp259
a(I54
I112
I48
tp260
a(I55
I113
I48
tp261
a(I56
I114
I48
tp262
a(I57
I115
I47
tp263
a(I58
I115
I47
tp264
a(I59
I116
I47
tp265
a(I60
I116
I47
tp266
a(I61
I117
I47
tp267
a(I62
I117
I47
tp268
a(I63
I117
I47
tp269
a(I64
I118
I46
tp270
a(I65
I118
I46
tp271
a(I66
I118
I46
tp272
a(I67
I118
I46
tp273
a(I68
I118
I46
tp274
a(I69
I119
I46
tp275
a(I70
I119
I46
tp276
a(I71
I119
I46
tp277
a(I72
I119
I46
tp278
a(I73
I119
I46
tp279
a(I74
I119
I46
tp280
a(I75
I120
I47
tp281
a(I76
I120
I47
tp282
a(I77
I120
I47
tp283
a(I78
I120
I47
tp284
a(I79
I120
I47
tp285
a(I80
I120
I47
tp286
a(I81
I119
I48
tp287
a(I82
I119
I48
tp288
a(I83
I119
I48
tp289
a(I84
I119
I49
tp290
a(I85
I119
I49
tp291
a(I86
I119
I49
tp292
a(I87
I118
I50
tp293
a(I88
I118
I50
tp294
a(I89
I118
I51
tp295
a(I90
I118
I51
tp296
a(I91
I118
I52
tp297
a(I92
I118
I53
tp298
a(I93
I118
I53
tp299
a(I94
I118
I53
tp300
a(I95
I118
I54
tp301
a(I96
I118
I55
tp302
a(I97
I117
I55
tp303
a(I98
I117
I56
tp304
a(I99
I117
I56
tp305
a(I100
I117
I57
tp306
a(I101
I117
I58
tp307
a(I102
I117
I59
tp308
a(I103
I117
I59
tp309
a(I104
I117
I60
tp310
a(I105
I117
I61
tp311
a(I106
I117
I62
tp312
a(I107
I117
I62
tp313
a(I108
I117
I63
tp314
a(I109
I117
I65
tp315
a(I110
I117
I65
tp316
a(I111
I116
I66
tp317
a(I112
I116
I67
tp318
a(I113
I116
I69
tp319
a(I114
I116
I69
tp320
a(I115
I116
I70
tp321
a(I116
I116
I71
tp322
a(I117
I116
I73
tp323
a(I118
I116
I74
tp324
a(I119
I116
I75
tp325
a(I120
I116
I76
tp326
a(I121
I116
I79
tp327
a(I122
I116
I80
tp328
a(I123
I116
I81
tp329
a(I124
I117
I83
tp330
a(I125
I117
I86
tp331
a(I126
I117
I88
tp332
a(I127
I117
I89
tp333
a(I128
I117
I91
tp334
a(I129
I117
I96
tp335
a(I130
I117
I99
tp336
a(I131
I117
I103
tp337
a(I132
I118
I108
tp338
a(I133
I118
I132
tp339
a(I134
I118
I131
tp340
a(I135
I118
I129
tp341
a(I136
I119
I127
tp342
a(I137
I119
I123
tp343
a(I138
I120
I121
tp344
a(I139
I120
I118
tp345
a(I140
I120
I115
tp346
a(I141
I121
I105
tp347
a(I142
I122
I208
tp348
a(I143
I122
I209
tp349
a(I144
I123
I209
tp350
a(I145
I124
I210
tp351
a(I146
I125
I211
tp352
a(I147
I126
I211
tp353
a(I148
I127
I211
tp354
a(I149
I128
I211
tp355
a(I149
I129
I211
tp356
a(I150
I130
I211
tp357
a(I151
I131
I210
tp358
a(I151
I132
I210
tp359
a(I151
I133
I210
tp360
a(I152
I134
I210
tp361
a(I152
I135
I210
tp362
a(I152
I136
I210
tp363
a(I153
I137
I210
tp364
a(I153
I138
I210
tp365
a(I153
I139
I210
tp366
a(I153
I140
I210
tp367
a(I154
I141
I210
tp368
a(I154
I142
I210
tp369
a(I154
I143
I210
tp370
a(I154
I144
I210
tp371
a(I154
I145
I210
tp372
a(I154
I146
I210
tp373
a(I154
I147
I210
tp374
a(I154
I148
I210
tp375
a(I154
I149
I210
tp376
a(I154
I150
I210
tp377
a(I154
I151
I210
tp378
a(I154
I152
I210
tp379
a(I154
I153
I210
tp380
a(I154
I154
I210
tp381
a(I154
I155
I210
tp382
a(I154
I156
I210
tp383
a(I154
I157
I210
tp384
a(I154
I158
I210
tp385
a(I154
I159
I210
tp386
a(I153
I160
I210
tp387
a(I153
I161
I210
tp388
a(I153
I162
I210
tp389
a(I153
I163
I210
tp390
a(I153
I164
I210
tp391
a(I153
I165
I210
tp392
a(I153
I166
I210
tp393
a(I153
I167
I210
tp394
a(I152
I168
I210
tp395
a(I152
I169
I210
tp396
a(I152
I170
I210
tp397
a(I152
I171
I210
tp398
a(I152
I172
I210
tp399
a(I151
I173
I210
tp400
a(I151
I174
I210
tp401
a(I151
I175
I210
tp402
a(I151
I176
I210
tp403
a(I150
I177
I211
tp404
a(I150
I178
I211
tp405
a(I150
I179
I211
tp406
a(I149
I180
I211
tp407
a(I149
I181
I211
tp408
a(I148
I182
I211
tp409
a(I148
I183
I211
tp410
a(I148
I184
I211
tp411
a(I147
I185
I211
tp412
a(I147
I186
I211
tp413
a(I146
I187
I211
tp414
a(I146
I188
I211
tp415
a(I145
I189
I210
tp416
a(I144
I190
I211
tp417
a(I144
I191
I211
tp418
a(I144
I191
I211
tp419
a(I144
I190
I211
tp420
a(I145
I189
I210
tp421
a(I144
I190
I209
tp422
a(I144
I191
I209
tp423
a(I143
I192
I209
tp424
a(I143
I192
I209
tp425
a(I142
I193
I208
tp426
a(I141
I194
I207
tp427
a(I141
I194
I206
tp428
a(I140
I195
I205
tp429
a(I140
I195
I205
tp430
a(I140
I195
I204
tp431
a(I140
I195
I203
tp432
a(I140
I195
I202
tp433
a(I140
I195
I201
tp434
a(I139
I196
I200
tp435
a(I139
I196
I200
tp436
a(I139
I196
I199
tp437
a(I139
I196
I198
tp438
a(I139
I196
I197
tp439
a(I139
I196
I196
tp440
a(I140
I195
I195
tp441
a(I140
I195
I194
tp442
a(I140
I195
I193
tp443
a(I140
I195
I192
tp444
a(I140
I195
I191
tp445
a(I140
I195
I190
tp446
a(I140
I195
I189
tp447
a(I140
I195
I188
tp448
a(I140
I195
I187
tp449
a(I140
I195
I186
tp450
a(I140
I195
I185
tp451
a(I139
I196
I184
tp452
a(I139
I196
I183
tp453
a(I139
I196
I182
tp454
a(I139
I196
I181
tp455
a(I139
I196
I180
tp456
a(I138
I197
I179
tp457
a(I138
I197
I179
tp458
a(I138
I197
I178
tp459
a(I138
I197
I177
tp460
a(I138
I197
I176
tp461
a(I138
I197
I175
tp462
a(I138
I197
I174
tp463
a(I137
I198
I173
tp464
a(I137
I198
I173
tp465
a(I137
I198
I172
tp466
a(I136
I198
I171
tp467
a(I136
I198
I171
tp468
a(I136
I198
I170
tp469
a(I136
I198
I169
tp470
a(I136
I198
I168
tp471
a(I135
I199
I167
tp472
a(I135
I199
I167
tp473
a(I134
I200
I166
tp474
a(I134
I200
I165
tp475
a(I133
I200
I164
tp476
a(I133
I200
I164
tp477
a(I132
I201
I163
tp478
a(I132
I201
I162
tp479
a(I132
I201
I161
tp480
a(I131
I201
I160
tp481
a(I131
I201
I160
tp482
a(I130
I201
I159
tp483
a(I129
I202
I158
tp484
a(I128
I202
I157
tp485
a(I127
I202
I156
tp486
a(I126
I203
I155
tp487
a(I125
I203
I154
tp488
a(I124
I203
I153
tp489
a(I123
I203
I152
tp490
a(I122
I203
I151
tp491
a(I121
I204
I151
tp492
a(I120
I204
I150
tp493
a(I119
I204
I149
tp494
a(I118
I204
I148
tp495
a(I117
I204
I148
tp496
a(I116
I204
I147
tp497
a(I115
I204
I146
tp498
a(I114
I204
I146
tp499
a(I113
I204
I145
tp500
a(I112
I204
I145
tp501
a(I111
I204
I144
tp502
a(I110
I204
I143
tp503
a(I109
I204
I142
tp504
a(I108
I204
I142
tp505
a(I107
I204
I142
tp506
a(I106
I204
I142
tp507
a(I105
I204
I142
tp508
a(I104
I204
I141
tp509
a(I103
I204
I141
tp510
a(I102
I204
I140
tp511
a(I101
I204
I140
tp512
a(I100
I204
I140
tp513
a(I99
I204
I140
tp514
a(I98
I204
I139
tp515
a(I97
I204
I139
tp516
a(I96
I204
I139
tp517
a(I95
I204
I138
tp518
a(I94
I204
I138
tp519
a(I93
I204
I138
tp520
a(I92
I204
I138
tp521
a(I91
I203
I138
tp522
a(I90
I203
I138
tp523
a(I89
I203
I137
tp524
a(I88
I203
I137
tp525
a(I87
I203
I137
tp526
a(I86
I203
I137
tp527
a(I85
I203
I137
tp528
a(I84
I203
I137
tp529
a(I83
I203
I137
tp530
a(I82
I203
I137
tp531
a(I81
I203
I137
tp532
a(I80
I203
I137
tp533
a(I79
I203
I137
tp534
a(I78
I203
I137
tp535
a(I77
I203
I137
tp536
a(I76
I203
I137
tp537
a(I75
I204
I137
tp538
a(I74
I204
I137
tp539
a(I73
I204
I137
tp540
a(I72
I204
I137
tp541
a(I71
I204
I138
tp542
a(I70
I204
I138
tp543
a(I69
I204
I138
tp544
a(I68
I204
I138
tp545
a(I67
I204
I138
tp546
a(I66
I204
I139
tp547
a(I65
I204
I139
tp548
a(I64
I204
I139
tp549
a(I63
I204
I139
tp550
a(I62
I203
I140
tp551
a(I61
I203
I140
tp552
a(I60
I203
I140
tp553
a(I59
I203
I141
tp554
a(I58
I203
I141
tp555
a(I57
I203
I141
tp556
a(I56
I202
I142
tp557
a(I55
I202
I142
tp558
a(I54
I202
I143
tp559
a(I53
I202
I143
tp560
a(I52
I202
I143
tp561
a(I51
I202
I144
tp562
a(I50
I202
I144
tp563
a(I49
I202
I145
tp564
a(I48
I202
I145
tp565
a(I47
I202
I146
tp566
a(I46
I201
I146
tp567
a(I45
I201
I147
tp568
a(I44
I201
I147
tp569
a(I44
I201
I148
tp570
a(I43
I201
I149
tp571
a(I43
I201
I149
tp572
a(I42
I201
I149
tp573
a(I41
I201
I150
tp574
a(I40
I200
I150
tp575
a(I39
I200
I151
tp576
a(I38
I200
I152
tp577
a(I37
I200
I152
tp578
a(I36
I199
I153
tp579
a(I36
I199
I154
tp580
a(I35
I199
I155
tp581
a(I35
I199
I155
tp582
a(I34
I199
I155
tp583
a(I33
I198
I156
tp584
a(I32
I198
I157
tp585
a(I31
I197
I158
tp586
a(I30
I197
I159
tp587
a(I29
I196
I160
tp588
a(I28
I196
I161
tp589
a(I28
I196
I162
tp590
a(I27
I195
I163
tp591
a(I27
I195
I163
tp592
a(I26
I194
I164
tp593
a(I25
I194
I165
tp594
a(I24
I193
I166
tp595
a(I24
I193
I166
tp596
a(I25
I194
I165
tp597
a(I26
I194
I164
tp598
a(I27
I195
I163
tp599
a(I28
I196
I162
tp600
a(I28
I196
I161
tp601
a(I29
I196
I160
tp602
a(I30
I197
I159
tp603
a(I31
I197
I158
tp604
a(I32
I198
I157
tp605
a(I33
I198
I156
tp606
a(I34
I199
I155
tp607
a(I35
I199
I155
tp608
a(I36
I199
I154
tp609
a(I36
I199
I153
tp610
a(I37
I200
I152
tp611
a(I38
I200
I152
tp612
a(I39
I200
I151
tp613
a(I40
I200
I150
tp614
a(I41
I201
I150
tp615
a(I42
I201
I149
tp616
a(I43
I201
I149
tp617
a(I44
I201
I148
tp618
a(I45
I201
I147
tp619
a(I46
I201
I146
tp620
a(I47
I202
I146
tp621
a(I48
I202
I145
tp622
a(I49
I202
I145
tp623
a(I50
I202
I144
tp624
a(I51
I202
I144
tp625
a(I52
I202
I143
tp626
a(I53
I202
I143
tp627
a(I54
I202
I143
tp628
a(I55
I202
I142
tp629
a(I56
I202
I142
tp630
a(I57
I203
I141
tp631
a(I58
I203
I141
tp632
a(I59
I203
I141
tp633
a(I60
I203
I140
tp634
a(I61
I203
I140
tp635
a(I62
I203
I140
tp636
a(I63
I204
I139
tp637
a(I64
I204
I139
tp638
a(I65
I204
I139
tp639
a(I66
I204
I139
tp640
a(I67
I204
I138
tp641
a(I68
I204
I138
tp642
a(I69
I204
I138
tp643
a(I70
I204
I138
tp644
a(I71
I204
I138
tp645
a(I72
I204
I137
tp646
a(I73
I204
I137
tp647
a(I74
I204
I137
tp648
a(I75
I204
I137
tp649
a(I76
I203
I137
tp650
a(I77
I203
I137
tp651
a(I78
I203
I137
tp652
a(I79
I203
I137
tp653
a(I80
I203
I137
tp654
a(I81
I203
I137
tp655
a(I82
I203
I137
tp656
a(I83
I203
I137
tp657
a(I84
I203
I137
tp658
a(I85
I203
I137
tp659
a(I86
I203
I137
tp660
a(I87
I203
I137
tp661
a(I88
I203
I137
tp662
a(I89
I203
I137
tp663
a(I90
I203
I138
tp664
a(I91
I203
I138
tp665
a(I92
I204
I138
tp666
a(I93
I204
I138
tp667
a(I94
I204
I138
tp668
a(I95
I204
I138
tp669
a(I96
I204
I139
tp670
a(I97
I204
I139
tp671
a(I98
I204
I139
tp672
a(I99
I204
I140
tp673
a(I100
I204
I140
tp674
a(I101
I204
I140
tp675
a(I102
I204
I140
tp676
a(I103
I204
I141
tp677
a(I104
I204
I141
tp678
a(I105
I204
I142
tp679
a(I106
I204
I142
tp680
a(I107
I204
I142
tp681
a(I108
I204
I141
tp682
a(I109
I204
I142
tp683
a(I110
I204
I143
tp684
a(I111
I204
I144
tp685
a(I112
I204
I145
tp686
a(I113
I204
I145
tp687
a(I114
I204
I146
tp688
a(I115
I204
I146
tp689
a(I116
I204
I147
tp690
a(I117
I204
I148
tp691
a(I118
I204
I148
tp692
a(I119
I204
I149
tp693
a(I120
I204
I150
tp694
a(I121
I204
I151
tp695
a(I122
I203
I151
tp696
a(I123
I203
I152
tp697
a(I124
I203
I153
tp698
a(I125
I203
I154
tp699
a(I126
I203
I155
tp700
a(I127
I202
I156
tp701
a(I128
I202
I157
tp702
a(I129
I202
I158
tp703
a(I130
I201
I159
tp704
a(I131
I201
I160
tp705
a(I132
I201
I161
tp706
a(I132
I201
I162
tp707
a(I132
I201
I163
tp708
a(I133
I200
I164
tp709
a(I134
I200
I165
tp710
a(I134
I200
I166
tp711
a(I135
I199
I167
tp712
a(I136
I198
I168
tp713
a(I136
I198
I169
tp714
a(I136
I198
I170
tp715
a(I136
I198
I171
tp716
a(I137
I198
I172
tp717
a(I137
I198
I173
tp718
a(I138
I197
I174
tp719
a(I138
I197
I175
tp720
a(I138
I197
I176
tp721
a(I138
I197
I177
tp722
a(I138
I197
I178
tp723
a(I138
I197
I179
tp724
a(I139
I196
I180
tp725
a(I139
I196
I181
tp726
a(I139
I196
I182
tp727
a(I139
I196
I183
tp728
a(I139
I196
I184
tp729
a(I140
I195
I185
tp730
a(I140
I195
I186
tp731
a(I140
I195
I187
tp732
a(I140
I195
I188
tp733
a(I140
I195
I189
tp734
a(I140
I195
I190
tp735
a(I140
I195
I191
tp736
a(I140
I195
I192
tp737
a(I140
I195
I193
tp738
a(I140
I195
I194
tp739
a(I140
I195
I195
tp740
a(I139
I196
I196
tp741
a(I139
I196
I197
tp742
a(I139
I196
I198
tp743
a(I139
I196
I199
tp744
a(I139
I196
I200
tp745
a(I140
I195
I201
tp746
a(I140
I195
I202
tp747
a(I140
I195
I203
tp748
a(I140
I195
I204
tp749
a(I140
I195
I205
tp750
a(I141
I194
I206
tp751
a(I141
I194
I207
tp752
a(I142
I193
I208
tp753
a(I143
I192
I209
tp754
a(I144
I191
I209
tp755
a(I144
I190
I209
tp756
a(I145
I189
I210
tp757
a(I144
I190
I211
tp758
a(I144
I190
I212
tp759
a(I144
I191
I213
tp760
a(I143
I192
I214
tp761
a(I143
I192
I215
tp762
a(I143
I192
I216
tp763
a(I142
I193
I217
tp764
a(I142
I193
I218
tp765
a(I141
I194
I219
tp766
a(I141
I194
I220
tp767
a(I141
I194
I221
tp768
a(I141
I194
I222
tp769
a(I140
I195
I223
tp770
a(I140
I195
I224
tp771
a(I140
I195
I225
tp772
a(I140
I195
I226
tp773
a(I140
I195
I227
tp774
a(I140
I195
I228
tp775
a(I140
I195
I229
tp776
a(I139
I196
I230
tp777
a(I139
I196
I231
tp778
a(I139
I196
I232
tp779
a(I139
I196
I233
tp780
a(I140
I195
I234
tp781
a(I140
I195
I235
tp782
a(I140
I195
I236
tp783
a(I140
I195
I237
tp784
a(I140
I195
I238
tp785
a(I140
I195
I239
tp786
a(I141
I194
I240
tp787
a(I141
I194
I241
tp788
a(I141
I194
I242
tp789
a(I141
I194
I243
tp790
a(I142
I193
I244
tp791
a(I142
I193
I245
tp792
a(I143
I192
I246
tp793
a(I143
I192
I247
tp794
a(I144
I191
I248
tp795
a(I144
I190
I249
tp796
a(I144
I190
I250
tp797
a(I144
I190
I251
tp798
a(I145
I189
I252
tp799
a(I146
I188
I253
tp800
a(I145
I189
I254
tp801
a(I144
I190
I254
tp802
a(I144
I191
I255
tp803
a(I143
I192
I256
tp804
a(I142
I193
I256
tp805
a(I141
I194
I257
tp806
a(I140
I195
I258
tp807
a(I140
I195
I259
tp808
a(I139
I196
I260
tp809
a(I139
I196
I261
tp810
a(I139
I196
I262
tp811
a(I138
I197
I263
tp812
a(I138
I197
I264
tp813
a(I139
I196
I265
tp814
a(I139
I196
I266
tp815
a(I140
I195
I267
tp816
a(I140
I195
I268
tp817
a(I140
I195
I269
tp818
a(I140
I195
I270
tp819
a(I140
I195
I271
tp820
a(I140
I195
I272
tp821
a(I140
I195
I273
tp822
a(I140
I195
I274
tp823
a(I140
I195
I275
tp824
a(I140
I195
I276
tp825
a(I140
I195
I277
tp826
a(I139
I196
I278
tp827
a(I139
I196
I279
tp828
a(I138
I197
I280
tp829
a(I138
I197
I281
tp830
a(I138
I197
I282
tp831
a(I137
I198
I283
tp832
a(I137
I198
I284
tp833
a(I137
I198
I285
tp834
a(I136
I198
I286
tp835
a(I136
I198
I287
tp836
a(I136
I198
I288
tp837
a(I136
I198
I289
tp838
a(I136
I198
I290
tp839
a(I135
I199
I291
tp840
a(I134
I200
I292
tp841
a(I134
I200
I293
tp842
a(I133
I200
I294
tp843
a(I132
I201
I295
tp844
a(I132
I201
I296
tp845
a(I132
I201
I297
tp846
a(I131
I201
I298
tp847
a(I130
I201
I299
tp848
a(I129
I202
I300
tp849
a(I128
I202
I301
tp850
a(I128
I202
I302
tp851
a(I127
I202
I303
tp852
a(I126
I203
I304
tp853
a(I125
I203
I305
tp854
a(I124
I203
I306
tp855
a(I123
I203
I307
tp856
a(I122
I203
I308
tp857
a(I121
I204
I309
tp858
a(I120
I204
I309
tp859
a(I119
I204
I310
tp860
a(I118
I204
I311
tp861
a(I117
I204
I312
tp862
a(I116
I204
I312
tp863
a(I115
I204
I313
tp864
a(I114
I204
I314
tp865
a(I113
I204
I314
tp866
a(I112
I204
I315
tp867
a(I111
I204
I316
tp868
a(I110
I204
I316
tp869
a(I109
I204
I317
tp870
a(I108
I204
I317
tp871
a(I107
I204
I318
tp872
a(I106
I204
I319
tp873
a(I105
I204
I319
tp874
a(I104
I204
I318
tp875
a(I104
I204
I317
tp876
a(I104
I204
I316
tp877
a(I103
I204
I315
tp878
a(I103
I204
I314
tp879
a(I102
I204
I313
tp880
a(I102
I204
I312
tp881
a(I102
I204
I311
tp882
a(I101
I204
I310
tp883
a(I101
I204
I309
tp884
a(I100
I204
I308
tp885
a(I100
I204
I307
tp886
a(I100
I204
I306
tp887
a(I100
I204
I305
tp888
a(I100
I204
I304
tp889
a(I99
I204
I303
tp890
a(I99
I204
I302
tp891
a(I98
I204
I301
tp892
a(I98
I204
I300
tp893
a(I97
I204
I299
tp894
a(I97
I204
I298
tp895
a(I96
I204
I297
tp896
a(I96
I204
I296
tp897
a(I96
I204
I295
tp898
a(I96
I204
I294
tp899
a(I95
I204
I293
tp900
a(I94
I204
I292
tp901
a(I94
I204
I291
tp902
a(I93
I204
I290
tp903
a(I93
I204
I289
tp904
a(I92
I204
I288
tp905
a(I92
I204
I287
tp906
a(I92
I204
I286
tp907
a(I91
I203
I285
tp908
a(I91
I203
I284
tp909
a(I90
I203
I283
tp910
a(I89
I203
I282
tp911
a(I89
I203
I281
tp912
a(I88
I203
I280
tp913
a(I88
I203
I279
tp914
a(I88
I203
I278
tp915
a(I87
I203
I277
tp916
a(I86
I203
I276
tp917
a(I86
I203
I275
tp918
a(I85
I203
I274
tp919
a(I84
I203
I273
tp920
a(I84
I203
I272
tp921
a(I84
I203
I271
tp922
a(I83
I203
I270
tp923
a(I82
I203
I269
tp924
a(I81
I203
I268
tp925
a(I80
I203
I267
tp926
a(I80
I203
I266
tp927
a(I80
I203
I265
tp928
a(I79
I203
I264
tp929
a(I78
I203
I263
tp930
a(I77
I203
I262
tp931
a(I76
I203
I261
tp932
a(I76
I203
I260
tp933
a(I75
I204
I259
tp934
a(I74
I204
I258
tp935
a(I73
I204
I257
tp936
a(I72
I204
I256
tp937
a(I72
I204
I255
tp938
a(I71
I204
I254
tp939
a(I70
I204
I254
tp940
a(I69
I204
I253
tp941
a(I68
I204
I252
tp942
a(I68
I204
I251
tp943
a(I67
I204
I250
tp944
a(I66
I204
I249
tp945
a(I65
I204
I249
tp946
a(I64
I204
I248
tp947
a(I63
I204
I247
tp948
a(I62
I203
I246
tp949
a(I61
I203
I245
tp950
a(I60
I203
I244
tp951
a(I59
I203
I243
tp952
a(I58
I203
I242
tp953
a(I57
I203
I242
tp954
a(I56
I202
I241
tp955
a(I55
I202
I240
tp956
a(I54
I202
I240
tp957
a(I53
I202
I239
tp958
a(I52
I202
I239
tp959
a(I51
I202
I238
tp960
a(I50
I202
I237
tp961
a(I49
I202
I237
tp962
a(I48
I202
I236
tp963
a(I47
I202
I236
tp964
a(I46
I201
I235
tp965
a(I45
I201
I235
tp966
a(I44
I201
I235
tp967
a(I43
I201
I234
tp968
a(I42
I201
I234
tp969
a(I41
I201
I233
tp970
a(I40
I200
I233
tp971
a(I39
I200
I233
tp972
a(I38
I200
I232
tp973
a(I37
I200
I232
tp974
a(I36
I199
I232
tp975
a(I35
I199
I231
tp976
a(I34
I199
I231
tp977
a(I33
I198
I231
tp978
a(I32
I198
I231
tp979
a(I31
I197
I231
tp980
a(I30
I197
I230
tp981
a(I29
I196
I230
tp982
a(I28
I196
I230
tp983
a(I27
I195
I230
tp984
a(I26
I194
I230
tp985
a(I25
I194
I230
tp986
a(I24
I193
I230
tp987
a(I23
I192
I230
tp988
a(I23
I192
I230
tp989
a(I22
I191
I230
tp990
a(I21
I190
I230
tp991
a(I20
I189
I230
tp992
a(I19
I188
I230
tp993
a(I19
I187
I230
tp994
a(I19
I186
I230
tp995
a(I18
I185
I230
tp996
a(I18
I184
I230
tp997
a(I18
I183
I230
tp998
a(I17
I182
I230
tp999
a(I17
I181
I230
tp1000
a(I17
I180
I230
tp1001
a(I16
I179
I230
tp1002
a(I16
I178
I230
tp1003
a(I16
I177
I230
tp1004
a(I16
I176
I230
tp1005
a(I15
I175
I230
tp1006
a(I15
I174
I230
tp1007
a(I15
I173
I230
tp1008
a(I15
I172
I230
tp1009
a(I15
I171
I230
tp1010
a(I14
I170
I230
tp1011
a(I14
I169
I230
tp1012
a(I14
I168
I230
tp1013
a(I14
I167
I230
tp1014
a(I14
I166
I230
tp1015
a(I14
I165
I230
tp1016
a(I14
I164
I230
tp1017
a(I14
I163
I230
tp1018
a(I13
I162
I230
tp1019
a(I13
I161
I230
tp1020
a(I13
I160
I230
tp1021
a(I13
I159
I230
tp1022
a(I13
I158
I230
tp1023
a(I13
I157
I230
tp1024
a(I13
I156
I230
tp1025
a(I13
I155
I230
tp1026
a(I13
I154
I230
tp1027
a(I13
I153
I230
tp1028
a(I13
I152
I230
tp1029
a(I13
I151
I230
tp1030
a(I13
I150
I230
tp1031
a(I13
I149
I230
tp1032
a(I13
I148
I230
tp1033
a(I13
I147
I230
tp1034
a(I13
I146
I230
tp1035
a(I13
I145
I230
tp1036
a(I13
I144
I230
tp1037
a(I13
I143
I230
tp1038
a(I14
I142
I230
tp1039
a(I14
I141
I230
tp1040
a(I14
I140
I230
tp1041
a(I14
I139
I230
tp1042
a(I14
I138
I230
tp1043
a(I14
I137
I230
tp1044
a(I15
I136
I230
tp1045
a(I15
I135
I230
tp1046
a(I15
I134
I230
tp1047
a(I15
I133
I230
tp1048
a(I15
I132
I230
tp1049
a(I16
I131
I230
tp1050
a(I16
I130
I230
tp1051
a(I16
I129
I230
tp1052
a(I16
I128
I230
tp1053
a(I17
I127
I230
tp1054
a(I17
I126
I230
tp1055
a(I17
I125
I230
tp1056
a(I18
I124
I230
tp1057
a(I18
I123
I230
tp1058
a(I19
I122
I230
tp1059
a(I19
I121
I230
tp1060
a(I19
I120
I230
tp1061
a(I20
I119
I230
tp1062
a(I20
I118
I230
tp1063
a(I21
I117
I230
tp1064
a(I22
I116
I230
tp1065
a(I23
I115
I230
tp1066
a(I24
I114
I230
tp1067
a(I25
I113
I230
tp1068
a(I26
I113
I230
tp1069
a(I27
I112
I230
tp1070
a(I28
I112
I230
tp1071
a(I29
I112
I230
tp1072
a(I30
I112
I230
tp1073
a(I31
I112
I231
tp1074
a(I32
I113
I231
tp1075
a(I33
I114
I231
tp1076
a(I34
I115
I231
tp1077
a(I34
I116
I231
tp1078
a(I35
I117
I231
tp1079
a(I36
I118
I232
tp1080
a(I36
I119
I232
tp1081
a(I36
I120
I232
tp1082
a(I37
I121
I232
tp1083
a(I37
I122
I232
tp1084
a(I37
I123
I232
tp1085
a(I37
I124
I232
tp1086
a(I37
I125
I232
tp1087
a(I37
I126
I232
tp1088
a(I38
I127
I232
tp1089
a(I38
I128
I232
tp1090
a(I38
I129
I232
tp1091
a(I38
I130
I232
tp1092
a(I38
I131
I232
tp1093
a(I38
I132
I232
tp1094
a(I38
I133
I232
tp1095
a(I38
I134
I232
tp1096
a(I38
I135
I232
tp1097
a(I37
I136
I232
tp1098
a(I37
I137
I232
tp1099
a(I37
I138
I232
tp1100
a(I37
I139
I232
tp1101
a(I37
I140
I232
tp1102
a(I37
I141
I232
tp1103
a(I36
I142
I232
tp1104
a(I36
I143
I232
tp1105
a(I36
I144
I232
tp1106
a(I36
I145
I232
tp1107
a(I36
I146
I232
tp1108
a(I35
I147
I231
tp1109
a(I35
I148
I231
tp1110
a(I35
I149
I231
tp1111
a(I34
I150
I231
tp1112
a(I34
I151
I231
tp1113
a(I34
I152
I231
tp1114
a(I34
I153
I231
tp1115
a(I33
I154
I231
tp1116
a(I33
I155
I231
tp1117
a(I33
I156
I231
tp1118
a(I32
I157
I231
tp1119
a(I32
I158
I231
tp1120
a(I32
I159
I231
tp1121
a(I32
I160
I231
tp1122
a(I31
I161
I231
tp1123
a(I31
I162
I231
tp1124
a(I31
I163
I231
tp1125
a(I30
I164
I230
tp1126
a(I30
I165
I230
tp1127
a(I30
I166
I230
tp1128
a(I30
I167
I230
tp1129
a(I29
I168
I230
tp1130
a(I29
I169
I230
tp1131
a(I29
I170
I230
tp1132
a(I28
I171
I230
tp1133
a(I28
I172
I230
tp1134
a(I28
I173
I230
tp1135
a(I28
I174
I230
tp1136
a(I27
I175
I230
tp1137
a(I27
I176
I230
tp1138
a(I27
I177
I230
tp1139
a(I26
I178
I230
tp1140
a(I26
I179
I230
tp1141
a(I26
I180
I230
tp1142
a(I26
I181
I230
tp1143
a(I25
I182
I230
tp1144
a(I25
I183
I230
tp1145
a(I25
I184
I230
tp1146
a(I24
I185
I230
tp1147
a(I24
I186
I230
tp1148
a(I24
I187
I230
tp1149
a(I24
I188
I230
tp1150
a(I23
I189
I230
tp1151
a(I23
I190
I230
tp1152
a(I22
I191
I230
tp1153
a(I21
I192
I230
tp1154
a(I21
I193
I230
tp1155
a(I21
I194
I230
tp1156
a(I21
I195
I230
tp1157
a(I21
I196
I230
tp1158
a(I20
I197
I230
tp1159
a(I20
I198
I230
tp1160
a(I20
I199
I230
tp1161
a(I20
I200
I230
tp1162
a(I20
I201
I230
tp1163
a(I20
I202
I230
tp1164
a(I19
I203
I230
tp1165
a(I19
I204
I230
tp1166
a(I19
I205
I230
tp1167
a(I19
I206
I230
tp1168
a(I18
I207
I230
tp1169
a(I18
I208
I230
tp1170
a(I18
I209
I230
tp1171
a(I18
I210
I230
tp1172
a(I17
I211
I230
tp1173
a(I17
I212
I230
tp1174
a(I17
I213
I230
tp1175
a(I16
I214
I230
tp1176
a(I16
I215
I230
tp1177
a(I16
I216
I230
tp1178
a(I16
I217
I230
tp1179
a(I15
I218
I230
tp1180
a(I15
I219
I230
tp1181
a(I15
I220
I230
tp1182
a(I15
I221
I230
tp1183
a(I14
I222
I230
tp1184
a(I14
I223
I230
tp1185
a(I14
I224
I230
tp1186
a(I14
I225
I230
tp1187
a(I13
I226
I230
tp1188
a(I13
I227
I230
tp1189
a(I13
I228
I230
tp1190
a(I13
I229
I230
tp1191
a(I12
I230
I230
tp1192
a(I12
I231
I230
tp1193
a(I12
I232
I230
tp1194
a(I12
I233
I230
tp1195
a(I11
I234
I231
tp1196
a(I11
I235
I231
tp1197
a(I11
I236
I231
tp1198
a(I11
I237
I231
tp1199
a(I10
I238
I231
tp1200
a(I10
I239
I231
tp1201
a(I10
I240
I231
tp1202
a(I10
I241
I231
tp1203
a(I9
I242
I231
tp1204
a(I9
I243
I231
tp1205
a(I9
I244
I231
tp1206
a(I9
I245
I231
tp1207
a(I9
I246
I231
tp1208
a(I8
I247
I231
tp1209
a(I8
I248
I231
tp1210
a(I8
I249
I231
tp1211
a(I8
I250
I231
tp1212
a(I8
I250
I231
tp1213
a(I8
I249
I231
tp1214
a(I8
I248
I232
tp1215
a(I8
I247
I233
tp1216
a(I9
I246
I234
tp1217
a(I9
I245
I234
tp1218
a(I9
I244
I234
tp1219
a(I9
I243
I234
tp1220
a(I9
I242
I234
tp1221
a(I10
I241
I234
tp1222
a(I10
I240
I234
tp1223
a(I10
I239
I234
tp1224
a(I10
I238
I234
tp1225
a(I11
I237
I235
tp1226
a(I11
I236
I235
tp1227
a(I11
I235
I235
tp1228
a(I11
I234
I235
tp1229
a(I12
I233
I236
tp1230
a(I12
I232
I236
tp1231
a(I12
I231
I236
tp1232
a(I12
I230
I237
tp1233
a(I13
I229
I238
tp1234
a(I13
I228
I238
tp1235
a(I13
I227
I238
tp1236
a(I13
I226
I238
tp1237
a(I14
I225
I239
tp1238
a(I14
I224
I239
tp1239
a(I14
I223
I239
tp1240
a(I14
I222
I239
tp1241
a(I15
I221
I240
tp1242
a(I15
I220
I240
tp1243
a(I15
I219
I240
tp1244
a(I15
I218
I240
tp1245
a(I16
I217
I241
tp1246
a(I16
I216
I241
tp1247
a(I16
I215
I241
tp1248
a(I16
I214
I242
tp1249
a(I17
I213
I243
tp1250
a(I17
I212
I243
tp1251
a(I17
I211
I243
tp1252
a(I18
I210
I244
tp1253
a(I18
I209
I244
tp1254
a(I18
I208
I244
tp1255
a(I18
I207
I244
tp1256
a(I19
I206
I245
tp1257
a(I19
I205
I245
tp1258
a(I19
I204
I245
tp1259
a(I19
I203
I245
tp1260
a(I20
I202
I246
tp1261
a(I20
I201
I246
tp1262
a(I20
I200
I246
tp1263
a(I20
I199
I246
tp1264
a(I20
I198
I246
tp1265
a(I20
I197
I247
tp1266
a(I21
I196
I248
tp1267
a(I21
I195
I248
tp1268
a(I21
I194
I248
tp1269
a(I21
I193
I248
tp1270
a(I21
I192
I248
tp1271
a(I22
I191
I249
tp1272
a(I22
I191
I250
tp1273
a(I23
I192
I251
tp1274
a(I24
I193
I252
tp1275
a(I24
I193
I253
tp1276
a(I24
I193
I254
tp1277
a(I25
I194
I255
tp1278
a(I25
I194
I256
tp1279
a(I26
I194
I257
tp1280
a(I27
I195
I258
tp1281
a(I27
I195
I259
tp1282
a(I28
I196
I260
tp1283
a(I28
I196
I261
tp1284
a(I28
I196
I262
tp1285
a(I28
I196
I263
tp1286
a(I28
I196
I264
tp1287
a(I29
I196
I265
tp1288
a(I29
I196
I266
tp1289
a(I29
I196
I267
tp1290
a(I29
I196
I268
tp1291
a(I29
I196
I269
tp1292
a(I30
I197
I270
tp1293
a(I30
I197
I271
tp1294
a(I30
I197
I272
tp1295
a(I30
I197
I273
tp1296
a(I30
I197
I274
tp1297
a(I29
I196
I275
tp1298
a(I29
I196
I276
tp1299
a(I29
I196
I277
tp1300
a(I29
I196
I278
tp1301
a(I28
I196
I279
tp1302
a(I28
I196
I280
tp1303
a(I28
I196
I281
tp1304
a(I27
I195
I282
tp1305
a(I26
I194
I283
tp1306
a(I25
I194
I284
tp1307
a(I24
I193
I284
tp1308
a(I23
I192
I285
tp1309
a(I22
I191
I285
tp1310
a(I21
I192
I285
tp1311
a(I21
I193
I285
tp1312
a(I21
I194
I285
tp1313
a(I21
I195
I285
tp1314
a(I21
I196
I285
tp1315
a(I20
I197
I284
tp1316
a(I20
I198
I284
tp1317
a(I20
I199
I284
tp1318
a(I20
I200
I284
tp1319
a(I20
I201
I284
tp1320
a(I20
I202
I284
tp1321
a(I19
I203
I283
tp1322
a(I19
I204
I283
tp1323
a(I19
I205
I283
tp1324
a(I19
I206
I283
tp1325
a(I18
I207
I283
tp1326
a(I18
I208
I283
tp1327
a(I18
I209
I283
tp1328
a(I18
I210
I283
tp1329
a(I17
I211
I282
tp1330
a(I17
I212
I282
tp1331
a(I17
I213
I282
tp1332
a(I16
I214
I281
tp1333
a(I16
I215
I281
tp1334
a(I16
I216
I281
tp1335
a(I16
I217
I281
tp1336
a(I15
I218
I280
tp1337
a(I15
I219
I280
tp1338
a(I15
I220
I280
tp1339
a(I15
I221
I280
tp1340
a(I14
I222
I279
tp1341
a(I14
I223
I279
tp1342
a(I14
I224
I279
tp1343
a(I14
I225
I279
tp1344
a(I13
I226
I278
tp1345
a(I13
I227
I278
tp1346
a(I13
I228
I278
tp1347
a(I13
I229
I278
tp1348
a(I12
I230
I277
tp1349
a(I12
I231
I276
tp1350
a(I12
I232
I276
tp1351
a(I12
I233
I276
tp1352
a(I11
I234
I275
tp1353
a(I11
I235
I275
tp1354
a(I11
I236
I275
tp1355
a(I11
I237
I275
tp1356
a(I10
I238
I274
tp1357
a(I10
I239
I274
tp1358
a(I10
I240
I274
tp1359
a(I10
I241
I274
tp1360
a(I9
I242
I273
tp1361
a(I9
I243
I273
tp1362
a(I9
I244
I273
tp1363
a(I9
I245
I273
tp1364
a(I9
I246
I273
tp1365
a(I8
I247
I272
tp1366
a(I8
I248
I271
tp1367
a(I8
I249
I271
tp1368
a(I8
I250
I271
tp1369
a(I7
I251
I270
tp1370
a(I7
I251
I270
tp1371
a(I7
I252
I270
tp1372
a(I7
I253
I270
tp1373
a(I7
I254
I270
tp1374
a(I7
I255
I270
tp1375
a(I6
I256
I269
tp1376
a(I6
I257
I269
tp1377
a(I6
I258
I269
tp1378
a(I6
I259
I269
tp1379
a(I6
I260
I269
tp1380
a(I6
I260
I268
tp1381
a(I5
I261
I267
tp1382
a(I5
I261
I267
tp1383
a(I5
I262
I267
tp1384
a(I5
I263
I267
tp1385
a(I5
I264
I267
tp1386
a(I5
I265
I267
tp1387
a(I5
I266
I267
tp1388
a(I4
I267
I266
tp1389
a(I4
I268
I266
tp1390
a(I4
I269
I266
tp1391
a(I4
I270
I266
tp1392
a(I4
I271
I266
tp1393
a(I4
I272
I266
tp1394
a(I4
I272
I265
tp1395
a(I4
I272
I264
tp1396
a(I3
I273
I263
tp1397
a(I3
I273
I263
tp1398
a(I3
I274
I263
tp1399
a(I3
I275
I263
tp1400
a(I3
I276
I263
tp1401
a(I3
I277
I263
tp1402
a(I3
I278
I263
tp1403
a(I2
I279
I262
tp1404
a(I2
I280
I262
tp1405
a(I2
I281
I262
tp1406
a(I2
I282
I262
tp1407
a(I2
I283
I262
tp1408
a(I2
I284
I262
tp1409
a(I2
I285
I262
tp1410
a(I2
I286
I262
tp1411
a(I2
I287
I262
tp1412
a(I2
I288
I262
tp1413
a(I1
I289
I261
tp1414
a(I1
I290
I261
tp1415
a(I1
I291
I261
tp1416
a(I1
I292
I261
tp1417
a(I0
I293
I261
tp1418
a(I0
I294
I261
tp1419
a(I0
I295
I261
tp1420
a(I0
I296
I261
tp1421
a(I0
I297
I261
tp1422
a(I0
I298
I261
tp1423
a(I0
I299
I261
tp1424
a(I0
I300
I261
tp1425
a(I0
I301
I261
tp1426
a(I0
I302
I261
tp1427
a(I0
I303
I261
tp1428
a(I1
I304
I261
tp1429
a(I1
I305
I261
tp1430
a(I1
I306
I261
tp1431
a(I1
I307
I261
tp1432
a(I1
I308
I261
tp1433
a(I1
I309
I261
tp1434
a(I1
I310
I261
tp1435
a(I1
I311
I261
tp1436
a(I1
I312
I261
tp1437
a(I1
I313
I261
tp1438
a(I1
I314
I261
tp1439
a(I1
I315
I261
tp1440
a(I1
I316
I261
tp1441
a(I1
I317
I261
tp1442
a(I2
I318
I262
tp1443
a(I2
I319
I262
tp1444
a(I2
I320
I262
tp1445
a(I2
I321
I262
tp1446
a(I2
I322
I262
tp1447
a(I2
I323
I262
tp1448
a(I2
I324
I262
tp1449
a(I2
I325
I262
tp1450
a(I3
I326
I263
tp1451
a(I3
I327
I263
tp1452
a(I3
I328
I263
tp1453
a(I3
I329
I263
tp1454
a(I3
I330
I263
tp1455
a(I3
I331
I263
tp1456
a(I3
I332
I263
tp1457
a(I4
I333
I264
tp1458
a(I4
I334
I264
tp1459
a(I4
I335
I264
tp1460
a(I4
I336
I264
tp1461
a(I4
I337
I264
tp1462
a(I4
I338
I264
tp1463
a(I4
I338
I265
tp1464
a(I4
I338
I266
tp1465
a(I5
I339
I267
tp1466
a(I5
I339
I267
tp1467
a(I5
I340
I267
tp1468
a(I5
I341
I267
tp1469
a(I5
I342
I267
tp1470
a(I5
I343
I267
tp1471
a(I6
I344
I268
tp1472
a(I6
I345
I268
tp1473
a(I6
I346
I268
tp1474
a(I6
I347
I268
tp1475
a(I6
I347
I269
tp1476
a(I7
I348
I270
tp1477
a(I7
I348
I270
tp1478
a(I7
I349
I270
tp1479
a(I7
I350
I270
tp1480
a(I7
I351
I270
tp1481
a(I7
I352
I270
tp1482
a(I8
I353
I271
tp1483
a(I8
I354
I271
tp1484
a(I8
I355
I271
tp1485
a(I8
I356
I271
tp1486
a(I8
I356
I272
tp1487
a(I9
I357
I273
tp1488
a(I9
I357
I273
tp1489
a(I9
I358
I273
tp1490
a(I9
I359
I273
tp1491
a(I10
I360
I274
tp1492
a(I10
I361
I274
tp1493
a(I10
I362
I274
tp1494
a(I10
I363
I274
tp1495
a(I11
I364
I275
tp1496
a(I11
I365
I275
tp1497
a(I11
I366
I275
tp1498
a(I12
I367
I276
tp1499
a(I12
I368
I276
tp1500
a(I12
I369
I276
tp1501
a(I12
I369
I277
tp1502
a(I13
I370
I278
tp1503
a(I13
I370
I278
tp1504
a(I13
I371
I278
tp1505
a(I13
I372
I278
tp1506
a(I14
I373
I279
tp1507
a(I14
I374
I279
tp1508
a(I14
I375
I279
tp1509
a(I15
I376
I280
tp1510
a(I15
I377
I280
tp1511
a(I15
I378
I280
tp1512
a(I16
I379
I281
tp1513
a(I16
I380
I281
tp1514
a(I16
I381
I281
tp1515
a(I17
I382
I282
tp1516
a(I17
I383
I282
tp1517
a(I18
I384
I283
tp1518
a(I18
I385
I283
tp1519
a(I18
I386
I283
tp1520
a(I19
I387
I283
tp1521
a(I19
I388
I283
tp1522
a(I20
I389
I284
tp1523
a(I20
I390
I284
tp1524
a(I21
I391
I285
tp1525
a(I21
I392
I285
tp1526
a(I21
I393
I285
tp1527
a(I22
I394
I285
tp1528
a(I22
I395
I285
tp1529
a(I23
I396
I285
tp1530
a(I23
I397
I285
tp1531
a(I24
I398
I284
tp1532
a(I24
I399
I284
tp1533
a(I25
I400
I284
tp1534
a(I26
I401
I283
tp1535
a(I27
I402
I282
tp1536
a(I28
I403
I281
tp1537
a(I28
I404
I281
tp1538
a(I28
I404
I280
tp1539
a(I28
I404
I279
tp1540
a(I29
I405
I278
tp1541
a(I29
I405
I278
tp1542
a(I29
I406
I278
tp1543
a(I29
I406
I277
tp1544
a(I29
I405
I276
tp1545
a(I29
I406
I275
tp1546
a(I30
I407
I274
tp1547
a(I30
I407
I274
tp1548
a(I30
I407
I274
tp1549
a(I29
I406
I275
tp1550
a(I29
I405
I276
tp1551
a(I29
I405
I277
tp1552
a(I29
I405
I278
tp1553
a(I28
I404
I279
tp1554
a(I28
I403
I280
tp1555
a(I28
I403
I281
tp1556
a(I27
I402
I282
tp1557
a(I26
I401
I283
tp1558
a(I25
I400
I284
tp1559
a(I24
I399
I284
tp1560
a(I24
I398
I284
tp1561
a(I23
I397
I285
tp1562
a(I23
I396
I285
tp1563
a(I22
I395
I285
tp1564
a(I22
I394
I285
tp1565
a(I21
I393
I285
tp1566
a(I21
I392
I285
tp1567
a(I21
I391
I285
tp1568
a(I20
I390
I284
tp1569
a(I20
I389
I284
tp1570
a(I19
I388
I283
tp1571
a(I19
I387
I283
tp1572
a(I18
I386
I283
tp1573
a(I18
I385
I283
tp1574
a(I18
I384
I283
tp1575
a(I17
I383
I282
tp1576
a(I17
I382
I282
tp1577
a(I16
I381
I281
tp1578
a(I16
I380
I281
tp1579
a(I16
I379
I281
tp1580
a(I15
I378
I280
tp1581
a(I15
I377
I280
tp1582
a(I15
I376
I280
tp1583
a(I14
I375
I279
tp1584
a(I14
I374
I279
tp1585
a(I14
I373
I279
tp1586
a(I13
I372
I278
tp1587
a(I13
I371
I278
tp1588
a(I13
I370
I278
tp1589
a(I12
I369
I277
tp1590
a(I12
I368
I276
tp1591
a(I12
I367
I276
tp1592
a(I11
I366
I275
tp1593
a(I11
I365
I275
tp1594
a(I11
I364
I275
tp1595
a(I10
I363
I274
tp1596
a(I10
I362
I274
tp1597
a(I10
I361
I274
tp1598
a(I10
I360
I274
tp1599
a(I9
I359
I273
tp1600
a(I9
I358
I273
tp1601
a(I9
I357
I273
tp1602
a(I8
I356
I272
tp1603
a(I8
I355
I271
tp1604
a(I8
I354
I271
tp1605
a(I8
I353
I271
tp1606
a(I7
I352
I270
tp1607
a(I7
I351
I270
tp1608
a(I7
I350
I270
tp1609
a(I7
I349
I270
tp1610
a(I7
I348
I270
tp1611
a(I6
I347
I269
tp1612
a(I6
I346
I268
tp1613
a(I6
I345
I268
tp1614
a(I6
I344
I268
tp1615
a(I5
I343
I267
tp1616
a(I5
I342
I267
tp1617
a(I5
I341
I267
tp1618
a(I5
I340
I267
tp1619
a(I5
I339
I267
tp1620
a(I4
I338
I266
tp1621
a(I4
I337
I265
tp1622
a(I4
I336
I264
tp1623
a(I4
I335
I264
tp1624
a(I4
I334
I264
tp1625
a(I4
I333
I264
tp1626
a(I3
I332
I263
tp1627
a(I3
I331
I263
tp1628
a(I3
I330
I263
tp1629
a(I3
I329
I263
tp1630
a(I3
I328
I263
tp1631
a(I3
I327
I263
tp1632
a(I3
I326
I263
tp1633
a(I2
I325
I262
tp1634
a(I2
I324
I262
tp1635
a(I2
I323
I262
tp1636
a(I2
I322
I262
tp1637
a(I2
I321
I262
tp1638
a(I2
I320
I262
tp1639
a(I2
I319
I262
tp1640
a(I2
I318
I262
tp1641
a(I1
I317
I261
tp1642
a(I1
I316
I260
tp1643
a(I1
I315
I260
tp1644
a(I1
I314
I260
tp1645
a(I1
I313
I260
tp1646
a(I1
I312
I260
tp1647
a(I1
I311
I260
tp1648
a(I1
I310
I260
tp1649
a(I1
I309
I260
tp1650
a(I1
I308
I260
tp1651
a(I1
I307
I260
tp1652
a(I1
I306
I260
tp1653
a(I1
I305
I260
tp1654
a(I1
I304
I261
tp1655
a(I0
I303
I262
tp1656
a(I0
I302
I263
tp1657
a(I0
I301
I264
tp1658
a(I0
I300
I265
tp1659
a(I0
I299
I266
tp1660
a(I0
I298
I267
tp1661
a(I0
I297
I268
tp1662
a(I0
I296
I269
tp1663
a(I0
I295
I270
tp1664
a(I0
I294
I271
tp1665
a(I0
I295
I272
tp1666
a(I0
I296
I273
tp1667
a(I0
I297
I274
tp1668
a(I0
I298
I275
tp1669
a(I0
I299
I276
tp1670
a(I0
I300
I277
tp1671
a(I0
I301
I278
tp1672
a(I0
I302
I279
tp1673
a(I0
I303
I280
tp1674
a(I1
I304
I281
tp1675
a(I1
I305
I281
tp1676
a(I1
I306
I281
tp1677
a(I1
I307
I281
tp1678
a(I1
I308
I281
tp1679
a(I1
I309
I281
tp1680
a(I1
I310
I281
tp1681
a(I1
I311
I281
tp1682
a(I1
I312
I281
tp1683
a(I1
I313
I281
tp1684
a(I1
I314
I281
tp1685
a(I1
I315
I281
tp1686
a(I1
I316
I282
tp1687
a(I1
I317
I283
tp1688
a(I2
I318
I284
tp1689
a(I2
I319
I284
tp1690
a(I2
I320
I284
tp1691
a(I2
I321
I284
tp1692
a(I2
I322
I284
tp1693
a(I2
I323
I284
tp1694
a(I2
I324
I284
tp1695
a(I2
I325
I285
tp1696
a(I3
I326
I286
tp1697
a(I3
I327
I286
tp1698
a(I3
I328
I286
tp1699
a(I3
I329
I286
tp1700
a(I3
I330
I286
tp1701
a(I3
I331
I286
tp1702
a(I3
I332
I287
tp1703
a(I4
I333
I288
tp1704
a(I4
I334
I288
tp1705
a(I4
I335
I288
tp1706
a(I4
I336
I289
tp1707
a(I4
I337
I290
tp1708
a(I4
I338
I291
tp1709
a(I5
I339
I292
tp1710
a(I5
I340
I292
tp1711
a(I5
I341
I292
tp1712
a(I5
I342
I292
tp1713
a(I5
I343
I292
tp1714
a(I6
I344
I293
tp1715
a(I6
I345
I293
tp1716
a(I6
I346
I293
tp1717
a(I6
I347
I294
tp1718
a(I7
I348
I295
tp1719
a(I7
I349
I295
tp1720
a(I7
I350
I295
tp1721
a(I7
I351
I295
tp1722
a(I7
I352
I295
tp1723
a(I8
I353
I296
tp1724
a(I8
I354
I296
tp1725
a(I8
I355
I297
tp1726
a(I8
I356
I298
tp1727
a(I9
I357
I299
tp1728
a(I9
I358
I299
tp1729
a(I9
I359
I299
tp1730
a(I10
I360
I300
tp1731
a(I10
I361
I300
tp1732
a(I10
I362
I300
tp1733
a(I10
I363
I300
tp1734
a(I11
I364
I301
tp1735
a(I11
I365
I301
tp1736
a(I11
I366
I301
tp1737
a(I12
I367
I302
tp1738
a(I12
I368
I302
tp1739
a(I12
I369
I302
tp1740
a(I13
I370
I303
tp1741
a(I13
I371
I303
tp1742
a(I13
I372
I303
tp1743
a(I14
I373
I304
tp1744
a(I14
I374
I304
tp1745
a(I14
I375
I304
tp1746
a(I15
I376
I305
tp1747
a(I15
I377
I305
tp1748
a(I15
I378
I305
tp1749
a(I16
I379
I306
tp1750
a(I16
I380
I306
tp1751
a(I16
I381
I306
tp1752
a(I17
I382
I307
tp1753
a(I17
I383
I307
tp1754
a(I18
I384
I308
tp1755
a(I18
I385
I308
tp1756
a(I18
I386
I308
tp1757
a(I19
I387
I309
tp1758
a(I19
I388
I309
tp1759
a(I20
I389
I310
tp1760
a(I20
I390
I310
tp1761
a(I21
I391
I311
tp1762
a(I21
I392
I311
tp1763
a(I21
I393
I311
tp1764
a(I22
I394
I311
tp1765
a(I22
I395
I311
tp1766
a(I23
I396
I312
tp1767
a(I23
I397
I312
tp1768
a(I24
I398
I313
tp1769
a(I24
I399
I313
tp1770
a(I25
I400
I313
tp1771
a(I26
I401
I314
tp1772
a(I27
I402
I314
tp1773
a(I28
I403
I315
tp1774
a(I28
I404
I315
tp1775
a(I29
I405
I316
tp1776
a(I29
I406
I316
tp1777
a(I30
I407
I316
tp1778
a(I31
I408
I317
tp1779
a(I31
I408
I317
tp1780
a(I31
I409
I317
tp1781
a(I32
I410
I318
tp1782
a(I33
I411
I318
tp1783
a(I33
I412
I318
tp1784
a(I34
I413
I318
tp1785
a(I35
I414
I319
tp1786
a(I36
I415
I319
tp1787
a(I37
I416
I320
tp1788
a(I38
I417
I320
tp1789
a(I38
I418
I320
tp1790
a(I39
I419
I320
tp1791
a(I40
I420
I321
tp1792
a(I41
I421
I321
tp1793
a(I42
I422
I321
tp1794
a(I43
I422
I321
tp1795
a(I44
I423
I322
tp1796
a(I45
I424
I322
tp1797
a(I46
I425
I323
tp1798
a(I47
I425
I323
tp1799
a(I48
I426
I323
tp1800
a(I49
I427
I323
tp1801
a(I50
I427
I324
tp1802
a(I51
I428
I324
tp1803
a(I52
I428
I324
tp1804
a(I53
I428
I324
tp1805
a(I54
I429
I324
tp1806
a(I55
I429
I324
tp1807
a(I56
I429
I325
tp1808
a(I57
I430
I325
tp1809
a(I58
I430
I325
tp1810
a(I59
I431
I325
tp1811
a(I60
I431
I325
tp1812
a(I61
I431
I325
tp1813
a(I62
I431
I325
tp1814
a(I63
I431
I325
tp1815
a(I64
I430
I325
tp1816
a(I65
I430
I326
tp1817
a(I66
I430
I326
tp1818
a(I67
I429
I326
tp1819
a(I68
I429
I326
tp1820
a(I69
I429
I326
tp1821
a(I70
I429
I326
tp1822
a(I71
I429
I326
tp1823
a(I72
I429
I326
tp1824
a(I73
I428
I326
tp1825
a(I74
I428
I326
tp1826
a(I75
I428
I326
tp1827
a(I76
I427
I325
tp1828
a(I77
I427
I325
tp1829
a(I78
I427
I325
tp1830
a(I79
I426
I325
tp1831
a(I80
I426
I325
tp1832
a(I81
I426
I325
tp1833
a(I82
I425
I325
tp1834
a(I83
I425
I325
tp1835
a(I84
I424
I324
tp1836
a(I85
I424
I324
tp1837
a(I86
I423
I324
tp1838
a(I87
I423
I324
tp1839
a(I88
I422
I324
tp1840
a(I89
I422
I324
tp1841
a(I90
I421
I324
tp1842
a(I91
I420
I323
tp1843
a(I92
I420
I323
tp1844
a(I93
I419
I323
tp1845
a(I94
I418
I323
tp1846
a(I95
I417
I322
tp1847
a(I96
I417
I322
tp1848
a(I97
I416
I322
tp1849
a(I98
I415
I322
tp1850
a(I99
I414
I321
tp1851
a(I100
I413
I321
tp1852
a(I101
I412
I320
tp1853
a(I102
I411
I320
tp1854
a(I103
I410
I319
tp1855
a(I104
I409
I319
tp1856
a(I104
I408
I319
tp1857
a(I105
I407
I319
tp1858
a(I106
I406
I319
tp1859
a(I107
I405
I318
tp1860
a(I107
I404
I318
tp1861
a(I108
I403
I317
tp1862
a(I108
I402
I317
tp1863
a(I109
I402
I317
tp1864
a(I109
I401
I317
tp1865
a(I110
I400
I316
tp1866
a(I111
I399
I316
tp1867
a(I111
I398
I316
tp1868
a(I112
I397
I315
tp1869
a(I112
I396
I315
tp1870
a(I112
I395
I315
tp1871
a(I113
I394
I314
tp1872
a(I113
I393
I314
tp1873
a(I113
I392
I314
tp1874
a(I113
I391
I314
tp1875
a(I113
I390
I314
tp1876
a(I113
I389
I314
tp1877
a(I113
I388
I314
tp1878
a(I113
I387
I314
tp1879
a(I112
I386
I315
tp1880
a(I112
I385
I315
tp1881
a(I112
I384
I315
tp1882
a(I112
I383
I315
tp1883
a(I111
I382
I316
tp1884
a(I111
I381
I316
tp1885
a(I110
I380
I316
tp1886
a(I110
I379
I316
tp1887
a(I109
I378
I317
tp1888
a(I108
I377
I317
tp1889
a(I107
I376
I318
tp1890
a(I106
I375
I319
tp1891
a(I105
I374
I319
tp1892
a(I104
I373
I319
tp1893
a(I103
I373
I319
tp1894
a(I102
I372
I320
tp1895
a(I101
I372
I320
tp1896
a(I100
I372
I321
tp1897
a(I99
I371
I321
tp1898
a(I98
I371
I321
tp1899
a(I97
I371
I322
tp1900
a(I96
I371
I322
tp1901
a(I95
I370
I322
tp1902
a(I94
I370
I323
tp1903
a(I93
I370
I323
tp1904
a(I92
I370
I323
tp1905
a(I91
I370
I323
tp1906
a(I90
I370
I324
tp1907
a(I89
I371
I324
tp1908
a(I88
I371
I324
tp1909
a(I87
I371
I324
tp1910
a(I86
I372
I324
tp1911
a(I85
I372
I324
tp1912
a(I84
I373
I324
tp1913
a(I83
I374
I325
tp1914
a(I82
I374
I325
tp1915
a(I81
I375
I325
tp1916
a(I81
I376
I325
tp1917
a(I80
I377
I325
tp1918
a(I80
I378
I325
tp1919
a(I79
I379
I325
tp1920
a(I79
I380
I325
tp1921
a(I78
I381
I325
tp1922
a(I78
I382
I325
tp1923
a(I78
I383
I325
tp1924
a(I78
I384
I325
tp1925
a(I78
I385
I325
tp1926
a(I78
I386
I325
tp1927
a(I78
I387
I325
tp1928
a(I79
I388
I325
tp1929
a(I80
I389
I325
tp1930
a(I81
I390
I325
tp1931
a(I82
I391
I325
tp1932
a(I83
I392
I325
tp1933
a(I84
I392
I324
tp1934
a(I85
I392
I324
tp1935
a(I86
I393
I324
tp1936
a(I87
I393
I324
tp1937
a(I88
I393
I324
tp1938
a(I89
I393
I324
tp1939
a(I90
I393
I324
tp1940
a(I91
I392
I323
tp1941
a(I92
I392
I323
tp1942
a(I93
I391
I323
tp1943
a(I94
I390
I323
tp1944
a(I95
I389
I322
tp1945
a(I95
I388
I322
tp1946
a(I96
I387
I322
tp1947
a(I97
I386
I322
tp1948
a(I97
I385
I322
tp1949
a(I97
I384
I322
tp1950
a(I97
I383
I322
tp1951
a(I97
I382
I322
tp1952
a(I97
I381
I322
tp1953
a(I97
I380
I322
tp1954
a(I97
I379
I322
tp1955
a(I97
I378
I322
tp1956
a(I97
I377
I322
tp1957
a(I96
I376
I322
tp1958
a(I96
I375
I322
tp1959
a(I96
I374
I322
tp1960
a(I95
I373
I322
tp1961
a(I94
I372
I323
tp1962
a(I93
I371
I323
tp1963
a(I93
I370
I323
tp1964
a(I93
I369
I323
tp1965
a(I92
I368
I323
tp1966
a(I91
I367
I323
tp1967
a(I90
I366
I324
tp1968
a(I89
I365
I324
tp1969
a(I88
I365
I324
tp1970
a(I87
I364
I324
tp1971
a(I86
I363
I324
tp1972
a(I85
I363
I324
tp1973
a(I84
I362
I324
tp1974
a(I83
I362
I325
tp1975
a(I82
I362
I325
tp1976
a(I81
I361
I325
tp1977
a(I80
I361
I325
tp1978
a(I79
I361
I325
tp1979
a(I78
I361
I325
tp1980
a(I77
I361
I325
tp1981
a(I76
I361
I325
tp1982
a(I75
I361
I326
tp1983
a(I74
I360
I326
tp1984
a(I73
I360
I326
tp1985
a(I72
I360
I326
tp1986
a(I71
I360
I326
tp1987
a(I70
I360
I326
tp1988
a(I69
I361
I326
tp1989
a(I68
I361
I326
tp1990
a(I67
I361
I326
tp1991
a(I66
I361
I326
tp1992
a(I65
I361
I326
tp1993
a(I64
I361
I325
tp1994
a(I63
I361
I325
tp1995
a(I62
I361
I325
tp1996
a(I61
I361
I325
tp1997
a(I60
I361
I325
tp1998
a(I59
I361
I325
tp1999
a(I58
I361
I325
tp2000
a(I57
I362
I325
tp2001
a(I56
I362
I325
tp2002
a(I55
I362
I324
tp2003
a(I54
I362
I324
tp2004
a(I53
I362
I324
tp2005
a(I52
I362
I324
tp2006
a(I51
I363
I324
tp2007
a(I50
I363
I324
tp2008
a(I49
I363
I323
tp2009
a(I48
I363
I323
tp2010
a(I47
I363
I323
tp2011
a(I46
I363
I323
tp2012
a(I45
I363
I322
tp2013
a(I44
I364
I322
tp2014
a(I43
I364
I321
tp2015
a(I42
I364
I321
tp2016
a(I41
I364
I321
tp2017
a(I40
I364
I321
tp2018
a(I39
I365
I320
tp2019
a(I38
I365
I320
tp2020
a(I37
I365
I320
tp2021
a(I36
I365
I319
tp2022
a(I35
I365
I319
tp2023
a(I34
I364
I318
tp2024
a(I33
I363
I318
tp2025
a(I32
I362
I318
tp2026
a(I31
I361
I317
tp2027
a(I30
I360
I316
tp2028
a(I30
I359
I316
tp2029
a(I30
I358
I316
tp2030
a(I29
I357
I316
tp2031
a(I28
I356
I315
tp2032
a(I28
I355
I315
tp2033
a(I28
I354
I315
tp2034
a(I28
I353
I315
tp2035
a(I28
I352
I315
tp2036
a(I29
I351
I316
tp2037
a(I29
I350
I316
tp2038
a(I29
I349
I316
tp2039
a(I30
I348
I316
tp2040
a(I31
I347
I317
tp2041
a(I31
I346
I317
tp2042
a(I32
I345
I318
tp2043
a(I33
I344
I318
tp2044
a(I34
I343
I318
tp2045
a(I35
I343
I319
tp2046
a(I36
I342
I319
tp2047
a(I37
I341
I320
tp2048
a(I38
I341
I320
tp2049
a(I39
I340
I320
tp2050
a(I40
I340
I321
tp2051
a(I41
I339
I321
tp2052
a(I42
I339
I321
tp2053
a(I43
I339
I321
tp2054
a(I44
I338
I322
tp2055
a(I45
I338
I322
tp2056
a(I46
I338
I323
tp2057
a(I47
I337
I323
tp2058
a(I48
I337
I323
tp2059
a(I49
I337
I323
tp2060
a(I50
I336
I324
tp2061
a(I51
I336
I324
tp2062
a(I52
I336
I324
tp2063
a(I53
I336
I324
tp2064
a(I54
I335
I324
tp2065
a(I55
I335
I324
tp2066
a(I56
I335
I325
tp2067
a(I57
I335
I325
tp2068
a(I58
I335
I325
tp2069
a(I59
I334
I325
tp2070
a(I60
I334
I325
tp2071
a(I61
I334
I325
tp2072
a(I62
I334
I325
tp2073
a(I63
I334
I325
tp2074
a(I64
I334
I325
tp2075
a(I65
I333
I326
tp2076
a(I66
I333
I326
tp2077
a(I67
I333
I326
tp2078
a(I68
I333
I326
tp2079
a(I69
I333
I326
tp2080
a(I70
I333
I326
tp2081
a(I71
I333
I326
tp2082
a(I72
I333
I326
tp2083
a(I73
I333
I326
tp2084
a(I74
I333
I326
tp2085
a(I75
I333
I326
tp2086
a(I76
I333
I325
tp2087
a(I77
I333
I325
tp2088
a(I78
I333
I325
tp2089
a(I79
I333
I325
tp2090
a(I80
I333
I325
tp2091
a(I81
I333
I325
tp2092
a(I82
I333
I325
tp2093
a(I83
I333
I325
tp2094
a(I84
I333
I324
tp2095
a(I85
I333
I324
tp2096
a(I86
I334
I324
tp2097
a(I87
I334
I324
tp2098
a(I88
I334
I324
tp2099
a(I89
I334
I324
tp2100
a(I90
I334
I324
tp2101
a(I91
I334
I323
tp2102
a(I92
I335
I323
tp2103
a(I93
I335
I323
tp2104
a(I94
I335
I323
tp2105
a(I95
I335
I322
tp2106
a(I96
I336
I322
tp2107
a(I97
I336
I322
tp2108
a(I98
I336
I322
tp2109
a(I99
I337
I321
tp2110
a(I100
I337
I321
tp2111
a(I101
I337
I320
tp2112
a(I102
I338
I320
tp2113
a(I103
I338
I319
tp2114
a(I104
I339
I319
tp2115
a(I105
I339
I319
tp2116
a(I106
I340
I319
tp2117
a(I107
I340
I318
tp2118
a(I108
I341
I317
tp2119
a(I109
I341
I317
tp2120
a(I110
I342
I316
tp2121
a(I111
I343
I316
tp2122
a(I112
I343
I315
tp2123
a(I113
I344
I314
tp2124
a(I114
I345
I314
tp2125
a(I115
I345
I313
tp2126
a(I116
I346
I312
tp2127
a(I117
I347
I312
tp2128
a(I118
I348
I311
tp2129
a(I119
I349
I310
tp2130
a(I119
I350
I310
tp2131
a(I120
I351
I309
tp2132
a(I121
I352
I309
tp2133
a(I121
I353
I309
tp2134
a(I122
I354
I308
tp2135
a(I122
I355
I308
tp2136
a(I123
I356
I307
tp2137
a(I124
I356
I306
tp2138
a(I125
I356
I305
tp2139
a(I126
I356
I304
tp2140
a(I127
I355
I303
tp2141
a(I128
I355
I302
tp2142
a(I128
I355
I301
tp2143
a(I129
I354
I300
tp2144
a(I129
I354
I300
tp2145
a(I130
I354
I299
tp2146
a(I131
I353
I298
tp2147
a(I132
I352
I297
tp2148
a(I132
I352
I296
tp2149
a(I132
I352
I295
tp2150
a(I133
I352
I294
tp2151
a(I133
I352
I294
tp2152
a(I134
I351
I293
tp2153
a(I134
I351
I292
tp2154
a(I135
I350
I291
tp2155
a(I135
I350
I291
tp2156
a(I136
I349
I290
tp2157
a(I136
I349
I289
tp2158
a(I136
I349
I288
tp2159
a(I136
I349
I287
tp2160
a(I136
I349
I286
tp2161
a(I137
I348
I285
tp2162
a(I137
I348
I285
tp2163
a(I137
I348
I284
tp2164
a(I137
I348
I283
tp2165
a(I138
I347
I282
tp2166
a(I138
I347
I282
tp2167
a(I138
I347
I281
tp2168
a(I138
I347
I280
tp2169
a(I139
I346
I279
tp2170
a(I139
I346
I279
tp2171
a(I139
I346
I278
tp2172
a(I140
I345
I277
tp2173
a(I140
I345
I277
tp2174
a(I140
I345
I276
tp2175
a(I140
I345
I275
tp2176
a(I140
I345
I274
tp2177
a(I140
I345
I273
tp2178
a(I140
I345
I272
tp2179
a(I140
I345
I271
tp2180
a(I140
I345
I270
tp2181
a(I140
I345
I269
tp2182
a(I140
I345
I268
tp2183
a(I140
I345
I267
tp2184
a(I139
I346
I266
tp2185
a(I139
I346
I265
tp2186
a(I138
I347
I264
tp2187
a(I138
I347
I263
tp2188
a(I139
I346
I262
tp2189
a(I139
I346
I261
tp2190
a(I139
I346
I260
tp2191
a(I140
I345
I259
tp2192
a(I140
I345
I258
tp2193
a(I141
I344
I257
tp2194
a(I141
I344
I257
tp2195
a(I141
I343
I257
tp2196
a(I142
I342
I256
tp2197
a(I143
I341
I256
tp2198
a(I144
I340
I255
tp2199
a(I145
I339
I254
tp2200
a(I145
I338
I254
tp2201
a(I146
I337
I254
tp2202
a(I147
I336
I254
tp2203
a(I148
I335
I254
tp2204
a(I148
I334
I254
tp2205
a(I149
I333
I254
tp2206
a(I150
I332
I254
tp2207
a(I150
I331
I254
tp2208
a(I151
I330
I254
tp2209
a(I152
I329
I254
tp2210
a(I152
I328
I254
tp2211
a(I153
I327
I254
tp2212
a(I154
I326
I254
tp2213
a(I154
I325
I254
tp2214
a(I155
I324
I254
tp2215
a(I155
I323
I254
tp2216
a(I156
I322
I254
tp2217
a(I156
I321
I254
tp2218
a(I157
I320
I254
tp2219
a(I158
I319
I254
tp2220
a(I158
I318
I254
tp2221
a(I159
I317
I254
tp2222
a(I159
I316
I254
tp2223
a(I160
I315
I254
tp2224
a(I160
I314
I254
tp2225
a(I161
I313
I254
tp2226
a(I161
I312
I254
tp2227
a(I162
I311
I254
tp2228
a(I162
I310
I254
tp2229
a(I162
I309
I254
tp2230
a(I163
I308
I254
tp2231
a(I163
I307
I254
tp2232
a(I164
I306
I254
tp2233
a(I164
I305
I254
tp2234
a(I165
I304
I255
tp2235
a(I165
I303
I255
tp2236
a(I165
I302
I255
tp2237
a(I166
I301
I255
tp2238
a(I166
I300
I255
tp2239
a(I166
I299
I255
tp2240
a(I167
I298
I255
tp2241
a(I167
I297
I255
tp2242
a(I167
I296
I255
tp2243
a(I168
I295
I255
tp2244
a(I168
I294
I255
tp2245
a(I168
I293
I255
tp2246
a(I168
I292
I255
tp2247
a(I169
I291
I256
tp2248
a(I169
I290
I256
tp2249
a(I169
I289
I256
tp2250
a(I169
I288
I256
tp2251
a(I169
I287
I256
tp2252
a(I170
I286
I256
tp2253
a(I170
I285
I256
tp2254
a(I170
I284
I256
tp2255
a(I170
I283
I256
tp2256
a(I170
I282
I256
tp2257
a(I170
I281
I256
tp2258
a(I170
I280
I256
tp2259
a(I170
I279
I256
tp2260
a(I171
I278
I256
tp2261
a(I171
I277
I256
tp2262
a(I171
I276
I256
tp2263
a(I171
I275
I256
tp2264
a(I171
I274
I256
tp2265
a(I171
I273
I256
tp2266
a(I170
I273
I256
tp2267
a(I170
I272
I256
tp2268
a(I170
I271
I256
tp2269
a(I169
I270
I256
tp2270
a(I169
I269
I256
tp2271
a(I169
I268
I256
tp2272
a(I169
I267
I256
tp2273
a(I169
I266
I256
tp2274
a(I168
I265
I255
tp2275
a(I168
I264
I255
tp2276
a(I168
I263
I255
tp2277
a(I168
I262
I255
tp2278
a(I167
I261
I255
tp2279
a(I167
I260
I255
tp2280
a(I167
I259
I255
tp2281
a(I166
I258
I255
tp2282
a(I166
I257
I255
tp2283
a(I165
I256
I255
tp2284
a(I165
I255
I255
tp2285
a(I164
I254
I254
tp2286
a(I164
I253
I254
tp2287
a(I163
I252
I254
tp2288
a(I163
I251
I254
tp2289
a(I162
I250
I254
tp2290
a(I161
I249
I254
tp2291
a(I160
I248
I254
tp2292
a(I159
I247
I254
tp2293
a(I158
I246
I254
tp2294
a(I157
I245
I254
tp2295
a(I156
I244
I254
tp2296
a(I155
I243
I254
tp2297
a(I154
I242
I254
tp2298
a(I153
I242
I254
tp2299
a(I152
I241
I254
tp2300
a(I151
I241
I254
tp2301
a(I150
I240
I254
tp2302
a(I149
I240
I254
tp2303
a(I148
I240
I254
tp2304
a(I147
I240
I254
tp2305
a(I146
I240
I254
tp2306
a(I145
I240
I254
tp2307
a(I144
I240
I254
tp2308
a(I144
I240
I255
tp2309
a(I143
I240
I256
tp2310
a(I143
I240
I256
tp2311
a(I142
I240
I256
tp2312
a(I141
I240
I257
tp2313
a(I140
I240
I258
tp2314
a(I140
I240
I259
tp2315
a(I139
I240
I260
tp2316
a(I139
I240
I260
tp2317
a(I139
I240
I261
tp2318
a(I139
I240
I262
tp2319
a(I138
I240
I263
tp2320
a(I138
I240
I263
tp2321
a(I138
I240
I264
tp2322
a(I139
I240
I265
tp2323
a(I139
I240
I266
tp2324
a(I140
I240
I267
tp2325
a(I140
I240
I268
tp2326
a(I140
I240
I269
tp2327
a(I140
I240
I270
tp2328
a(I140
I240
I271
tp2329
a(I140
I240
I272
tp2330
a(I140
I240
I273
tp2331
a(I140
I240
I274
tp2332
a(I140
I240
I275
tp2333
a(I140
I240
I276
tp2334
a(I140
I240
I277
tp2335
a(I139
I240
I278
tp2336
a(I139
I240
I279
tp2337
a(I138
I240
I280
tp2338
a(I138
I240
I281
tp2339
a(I138
I240
I282
tp2340
a(I137
I241
I283
tp2341
a(I137
I241
I283
tp2342
a(I137
I241
I284
tp2343
a(I137
I241
I285
tp2344
a(I136
I241
I286
tp2345
a(I136
I241
I286
tp2346
a(I136
I241
I287
tp2347
a(I136
I241
I288
tp2348
a(I136
I241
I289
tp2349
a(I136
I241
I290
tp2350
a(I135
I241
I291
tp2351
a(I135
I241
I291
tp2352
a(I134
I242
I292
tp2353
a(I134
I242
I293
tp2354
a(I133
I242
I294
tp2355
a(I133
I242
I294
tp2356
a(I132
I242
I295
tp2357
a(I132
I242
I296
tp2358
a(I132
I242
I297
tp2359
a(I131
I243
I298
tp2360
a(I131
I243
I298
tp2361
a(I130
I243
I299
tp2362
a(I129
I244
I300
tp2363
a(I128
I245
I301
tp2364
a(I128
I245
I302
tp2365
a(I127
I245
I303
tp2366
a(I127
I245
I303
tp2367
a(I126
I246
I304
tp2368
a(I125
I247
I305
tp2369
a(I124
I247
I305
tp2370
a(I124
I247
I306
tp2371
a(I123
I248
I307
tp2372
a(I123
I248
I307
tp2373
a(I122
I249
I308
tp2374
a(I121
I250
I309
tp2375
a(I120
I251
I309
tp2376
a(I119
I252
I310
tp2377
a(I119
I253
I310
tp2378
a(I118
I254
I311
tp2379
a(I117
I255
I312
tp2380
a(I117
I256
I312
tp2381
a(I116
I257
I312
tp2382
a(I115
I258
I313
tp2383
a(I115
I259
I313
tp2384
a(I114
I260
I314
tp2385
a(I113
I261
I314
tp2386
a(I113
I262
I314
tp2387
a(I112
I263
I315
tp2388
a(I112
I264
I315
tp2389
a(I111
I265
I316
tp2390
a(I110
I266
I316
tp2391
a(I110
I267
I316
tp2392
a(I109
I268
I317
tp2393
a(I109
I269
I317
tp2394
a(I108
I270
I317
tp2395
a(I108
I271
I317
tp2396
a(I107
I272
I318
tp2397
a(I107
I273
I318
tp2398
a(I106
I274
I319
tp2399
a(I105
I275
I319
tp2400
a(I105
I276
I319
tp2401
a(I104
I277
I319
tp2402
a(I104
I278
I319
tp2403
a(I103
I279
I319
tp2404
a(I103
I280
I319
tp2405
a(I102
I281
I320
tp2406
a(I102
I282
I320
tp2407
a(I101
I283
I320
tp2408
a(I101
I284
I320
tp2409
a(I100
I285
I321
tp2410
a(I99
I286
I321
tp2411
a(I99
I287
I321
tp2412
a(I98
I288
I321
tp2413
a(I98
I289
I321
tp2414
a(I97
I290
I322
tp2415
a(I96
I291
I322
tp2416
a(I96
I292
I322
tp2417
a(I95
I293
I322
tp2418
a(I94
I294
I323
tp2419
a(I94
I295
I323
tp2420
a(I93
I296
I323
tp2421
a(I92
I297
I323
tp2422
a(I92
I298
I323
tp2423
a(I91
I299
I323
tp2424
a(I90
I300
I324
tp2425
a(I90
I301
I324
tp2426
a(I89
I302
I324
tp2427
a(I88
I303
I324
tp2428
a(I87
I304
I324
tp2429
a(I86
I305
I324
tp2430
a(I85
I306
I324
tp2431
a(I84
I307
I324
tp2432
a(I83
I308
I325
tp2433
a(I82
I309
I325
tp2434
a(I81
I309
I325
tp2435
a(I80
I310
I325
tp2436
a(I79
I311
I325
tp2437
a(I78
I311
I325
tp2438
a(I77
I311
I325
tp2439
a(I76
I312
I325
tp2440
a(I75
I312
I326
tp2441
a(I74
I312
I326
tp2442
a(I73
I313
I326
tp2443
a(I72
I313
I326
tp2444
a(I71
I313
I326
tp2445
a(I70
I313
I326
tp2446
a(I69
I314
I326
tp2447
a(I68
I314
I326
tp2448
a(I67
I314
I326
tp2449
a(I66
I314
I326
tp2450
a(I65
I314
I326
tp2451
a(I64
I314
I325
tp2452
a(I63
I314
I325
tp2453
a(I62
I314
I325
tp2454
a(I61
I313
I325
tp2455
a(I60
I313
I325
tp2456
a(I59
I313
I325
tp2457
a(I58
I313
I325
tp2458
a(I57
I312
I325
tp2459
a(I56
I312
I325
tp2460
a(I55
I312
I324
tp2461
a(I54
I311
I324
tp2462
a(I53
I311
I324
tp2463
a(I52
I310
I324
tp2464
a(I51
I309
I324
tp2465
a(I50
I309
I324
tp2466
a(I49
I308
I323
tp2467
a(I48
I307
I323
tp2468
a(I48
I306
I323
tp2469
a(I47
I305
I323
tp2470
a(I46
I304
I323
tp2471
a(I45
I303
I322
tp2472
a(I45
I302
I322
tp2473
a(I44
I301
I322
tp2474
a(I43
I300
I321
tp2475
a(I43
I299
I321
tp2476
a(I42
I298
I321
tp2477
a(I42
I297
I321
tp2478
a(I41
I296
I321
tp2479
a(I40
I295
I321
tp2480
a(I40
I294
I321
tp2481
a(I39
I293
I320
tp2482
a(I39
I292
I320
tp2483
a(I38
I291
I320
tp2484
a(I38
I290
I320
tp2485
a(I37
I289
I320
tp2486
a(I36
I288
I319
tp2487
a(I35
I287
I319
tp2488
a(I35
I286
I319
tp2489
a(I34
I285
I318
tp2490
a(I34
I284
I318
tp2491
a(I33
I283
I318
tp2492
a(I33
I282
I318
tp2493
a(I33
I281
I318
tp2494
a(I32
I280
I318
tp2495
a(I32
I279
I318
tp2496
a(I32
I278
I318
tp2497
a(I31
I277
I317
tp2498
a(I31
I276
I317
tp2499
a(I31
I275
I317
tp2500
a(I31
I274
I317
tp2501
a(I31
I273
I317
tp2502
a(I30
I272
I316
tp2503
a(I30
I271
I316
tp2504
a(I30
I270
I316
tp2505
a(I30
I269
I316
tp2506
a(I30
I268
I316
tp2507
a(I30
I267
I316
tp2508
a(I30
I266
I316
tp2509
a(I30
I265
I316
tp2510
a(I31
I264
I317
tp2511
a(I31
I263
I317
tp2512
a(I31
I262
I317
tp2513
a(I32
I261
I318
tp2514
a(I32
I260
I318
tp2515
a(I32
I259
I318
tp2516
a(I33
I258
I318
tp2517
a(I34
I257
I318
tp2518
a(I34
I256
I318
tp2519
a(I35
I255
I319
tp2520
a(I36
I254
I319
tp2521
a(I37
I253
I320
tp2522
a(I38
I253
I320
tp2523
a(I39
I252
I320
tp2524
a(I40
I251
I321
tp2525
a(I41
I251
I321
tp2526
a(I42
I250
I321
tp2527
a(I43
I250
I321
tp2528
a(I44
I249
I322
tp2529
a(I45
I249
I322
tp2530
a(I46
I249
I323
tp2531
a(I47
I248
I323
tp2532
a(I48
I248
I323
tp2533
a(I49
I248
I323
tp2534
a(I50
I247
I324
tp2535
a(I51
I247
I324
tp2536
a(I52
I247
I324
tp2537
a(I53
I246
I324
tp2538
a(I54
I246
I324
tp2539
a(I55
I246
I324
tp2540
a(I56
I245
I325
tp2541
a(I57
I245
I325
tp2542
a(I58
I245
I325
tp2543
a(I59
I245
I325
tp2544
a(I60
I245
I325
tp2545
a(I61
I244
I325
tp2546
a(I62
I244
I325
tp2547
a(I63
I244
I325
tp2548
a(I64
I244
I325
tp2549
a(I65
I244
I326
tp2550
a(I66
I244
I326
tp2551
a(I67
I244
I326
tp2552
a(I68
I243
I326
tp2553
a(I69
I243
I326
tp2554
a(I70
I243
I326
tp2555
a(I71
I243
I326
tp2556
a(I72
I243
I326
tp2557
a(I73
I243
I326
tp2558
a(I74
I243
I326
tp2559
a(I75
I244
I326
tp2560
a(I76
I244
I325
tp2561
a(I77
I244
I325
tp2562
a(I78
I244
I325
tp2563
a(I79
I244
I325
tp2564
a(I80
I244
I325
tp2565
a(I81
I245
I325
tp2566
a(I82
I245
I325
tp2567
a(I83
I245
I325
tp2568
a(I84
I246
I324
tp2569
a(I85
I246
I324
tp2570
a(I86
I247
I324
tp2571
a(I87
I247
I324
tp2572
a(I88
I248
I324
tp2573
a(I89
I248
I324
tp2574
a(I90
I249
I324
tp2575
a(I91
I250
I323
tp2576
a(I92
I251
I323
tp2577
a(I55
I19
I444
tp2578
a(I56
I19
I444
tp2579
a(I57
I18
I444
tp2580
a(I58
I18
I444
tp2581
a(I59
I18
I444
tp2582
a(I60
I18
I444
tp2583
a(I61
I18
I443
tp2584
a(I62
I18
I443
tp2585
a(I63
I17
I443
tp2586
a(I64
I17
I443
tp2587
a(I65
I17
I443
tp2588
a(I66
I17
I443
tp2589
a(I67
I17
I442
tp2590
a(I68
I17
I442
tp2591
a(I69
I17
I442
tp2592
a(I70
I17
I442
tp2593
a(I71
I17
I442
tp2594
a(I72
I17
I441
tp2595
a(I73
I17
I441
tp2596
a(I74
I17
I441
tp2597
a(I75
I16
I440
tp2598
a(I76
I16
I440
tp2599
a(I77
I16
I439
tp2600
a(I78
I16
I439
tp2601
a(I79
I16
I439
tp2602
a(I80
I16
I438
tp2603
a(I81
I16
I437
tp2604
a(I82
I16
I437
tp2605
a(I83
I16
I437
tp2606
a(I84
I16
I436
tp2607
a(I85
I17
I435
tp2608
a(I86
I17
I435
tp2609
a(I87
I17
I434
tp2610
a(I88
I17
I434
tp2611
a(I89
I17
I433
tp2612
a(I90
I17
I432
tp2613
a(I91
I17
I432
tp2614
a(I92
I17
I431
tp2615
a(I93
I17
I430
tp2616
a(I94
I17
I429
tp2617
a(I95
I17
I429
tp2618
a(I96
I18
I428
tp2619
a(I97
I18
I427
tp2620
a(I98
I18
I426
tp2621
a(I99
I18
I426
tp2622
a(I100
I19
I425
tp2623
a(I100
I19
I424
tp2624
a(I101
I19
I423
tp2625
a(I102
I19
I423
tp2626
a(I103
I19
I422
tp2627
a(I104
I20
I421
tp2628
a(I104
I20
I420
tp2629
a(I105
I20
I420
tp2630
a(I106
I20
I419
tp2631
a(I107
I21
I418
tp2632
a(I108
I21
I417
tp2633
a(I108
I21
I416
tp2634
a(I109
I22
I415
tp2635
a(I110
I22
I414
tp2636
a(I111
I23
I413
tp2637
a(I112
I24
I412
tp2638
a(I112
I24
I411
tp2639
a(I113
I24
I410
tp2640
a(I114
I25
I409
tp2641
a(I115
I26
I408
tp2642
a(I116
I27
I407
tp2643
a(I116
I27
I406
tp2644
a(I117
I28
I405
tp2645
a(I118
I29
I404
tp2646
a(I119
I31
I403
tp2647
a(I120
I33
I402
tp2648
a(I120
I33
I401
tp2649
a(I120
I33
I400
tp2650
a(I121
I35
I399
tp2651
a(I122
I39
I398
tp2652
a(I123
I116
I397
tp2653
a(I124
I117
I396
tp2654
a(I124
I117
I395
tp2655
a(I124
I117
I394
tp2656
a(I125
I117
I393
tp2657
a(I125
I117
I392
tp2658
a(I126
I117
I391
tp2659
a(I127
I117
I390
tp2660
a(I127
I117
I389
tp2661
a(I128
I117
I388
tp2662
a(I128
I117
I387
tp2663
a(I128
I117
I386
tp2664
a(I129
I117
I385
tp2665
a(I129
I117
I384
tp2666
a(I130
I117
I383
tp2667
a(I130
I117
I382
tp2668
a(I131
I117
I381
tp2669
a(I131
I117
I380
tp2670
a(I132
I118
I379
tp2671
a(I132
I118
I378
tp2672
a(I132
I118
I377
tp2673
a(I132
I118
I376
tp2674
a(I133
I118
I375
tp2675
a(I133
I118
I374
tp2676
a(I133
I118
I373
tp2677
a(I134
I118
I372
tp2678
a(I134
I118
I371
tp2679
a(I134
I118
I370
tp2680
a(I135
I118
I369
tp2681
a(I135
I118
I368
tp2682
a(I135
I118
I367
tp2683
a(I135
I118
I366
tp2684
a(I136
I119
I365
tp2685
a(I136
I119
I364
tp2686
a(I136
I119
I363
tp2687
a(I136
I119
I362
tp2688
a(I136
I119
I361
tp2689
a(I136
I119
I360
tp2690
a(I136
I119
I359
tp2691
a(I136
I119
I358
tp2692
a(I136
I119
I357
tp2693
a(I136
I119
I356
tp2694
a(I136
I119
I355
tp2695
a(I136
I119
I354
tp2696
a(I136
I119
I353
tp2697
a(I136
I119
I352
tp2698
a(I136
I119
I351
tp2699
a(I136
I119
I350
tp2700
a(I136
I119
I349
tp2701
a(I136
I119
I348
tp2702
a(I136
I119
I347
tp2703
a(I135
I118
I346
tp2704
a(I135
I118
I345
tp2705
a(I135
I118
I344
tp2706
a(I134
I118
I343
tp2707
a(I134
I118
I342
tp2708
a(I133
I118
I341
tp2709
a(I133
I118
I340
tp2710
a(I132
I118
I339
tp2711
a(I132
I118
I338
tp2712
a(I132
I118
I337
tp2713
a(I131
I117
I336
tp2714
a(I131
I117
I335
tp2715
a(I130
I117
I334
tp2716
a(I129
I117
I333
tp2717
a(I128
I117
I332
tp2718
a(I127
I117
I332
tp2719
a(I127
I117
I333
tp2720
a(I127
I117
I334
tp2721
a(I127
I117
I335
tp2722
a(I127
I117
I336
tp2723
a(I127
I117
I337
tp2724
a(I127
I117
I338
tp2725
a(I127
I117
I339
tp2726
a(I127
I117
I340
tp2727
a(I127
I117
I341
tp2728
a(I127
I117
I342
tp2729
a(I126
I117
I343
tp2730
a(I126
I117
I344
tp2731
a(I126
I117
I345
tp2732
a(I126
I117
I346
tp2733
a(I126
I117
I347
tp2734
a(I125
I117
I348
tp2735
a(I125
I117
I349
tp2736
a(I125
I117
I350
tp2737
a(I125
I117
I351
tp2738
a(I124
I117
I352
tp2739
a(I124
I117
I353
tp2740
a(I124
I117
I354
tp2741
a(I124
I117
I355
tp2742
a(I124
I117
I356
tp2743
a(I124
I117
I357
tp2744
a(I123
I116
I358
tp2745
a(I123
I116
I359
tp2746
a(I122
I116
I360
tp2747
a(I122
I116
I361
tp2748
a(I122
I116
I362
tp2749
a(I121
I116
I363
tp2750
a(I121
I116
I364
tp2751
a(I120
I116
I365
tp2752
a(I120
I116
I366
tp2753
a(I120
I116
I367
tp2754
a(I120
I116
I368
tp2755
a(I119
I116
I369
tp2756
a(I119
I116
I370
tp2757
a(I118
I116
I371
tp2758
a(I118
I116
I372
tp2759
a(I117
I116
I373
tp2760
a(I117
I116
I374
tp2761
a(I116
I116
I375
tp2762
a(I116
I116
I376
tp2763
a(I116
I116
I377
tp2764
a(I115
I116
I378
tp2765
a(I114
I116
I379
tp2766
a(I113
I116
I380
tp2767
a(I112
I116
I381
tp2768
a(I112
I116
I382
tp2769
a(I112
I116
I383
tp2770
a(I111
I116
I384
tp2771
a(I110
I117
I385
tp2772
a(I109
I117
I386
tp2773
a(I108
I117
I387
tp2774
a(I108
I117
I388
tp2775
a(I107
I117
I389
tp2776
a(I106
I117
I389
tp2777
a(I105
I117
I390
tp2778
a(I104
I117
I390
tp2779
a(I104
I117
I391
tp2780
a(I103
I117
I392
tp2781
a(I102
I117
I392
tp2782
a(I101
I117
I393
tp2783
a(I100
I117
I393
tp2784
a(I99
I117
I394
tp2785
a(I98
I117
I394
tp2786
a(I97
I117
I394
tp2787
a(I96
I118
I394
tp2788
a(I95
I118
I395
tp2789
a(I94
I118
I396
tp2790
a(I93
I118
I396
tp2791
a(I92
I118
I396
tp2792
a(I91
I118
I397
tp2793
a(I90
I118
I397
tp2794
a(I89
I118
I397
tp2795
a(I88
I118
I398
tp2796
a(I87
I118
I398
tp2797
a(I86
I119
I398
tp2798
a(I85
I119
I398
tp2799
a(I84
I119
I399
tp2800
a(I83
I119
I399
tp2801
a(I82
I119
I399
tp2802
a(I81
I119
I399
tp2803
a(I80
I120
I399
tp2804
a(I79
I120
I399
tp2805
a(I78
I120
I399
tp2806
a(I77
I120
I399
tp2807
a(I76
I120
I400
tp2808
a(I75
I120
I400
tp2809
a(I74
I119
I400
tp2810
a(I73
I119
I400
tp2811
a(I72
I119
I400
tp2812
a(I71
I119
I400
tp2813
a(I70
I119
I400
tp2814
a(I69
I119
I400
tp2815
a(I68
I118
I400
tp2816
a(I67
I118
I400
tp2817
a(I66
I118
I399
tp2818
a(I65
I118
I399
tp2819
a(I64
I118
I399
tp2820
a(I63
I117
I399
tp2821
a(I62
I117
I399
tp2822
a(I61
I117
I399
tp2823
a(I60
I116
I399
tp2824
a(I59
I116
I399
tp2825
a(I58
I115
I399
tp2826
a(I57
I115
I398
tp2827
a(I56
I114
I398
tp2828
a(I55
I113
I398
tp2829
a(I54
I112
I398
tp2830
a(I53
I111
I398
tp2831
a(I52
I110
I398
tp2832
a(I51
I108
I397
tp2833
a(I50
I106
I397
tp2834
a(I49
I103
I397
tp2835
a(I48
I100
I397
tp2836
a(I47
I93
I396
tp2837
a(I46
I87
I396
tp2838
a(I45
I82
I396
tp2839
a(I44
I79
I396
tp2840
a(I43
I76
I395
tp2841
a(I42
I74
I395
tp2842
a(I41
I72
I395
tp2843
a(I40
I69
I394
tp2844
a(I39
I67
I394
tp2845
a(I38
I65
I394
tp2846
a(I37
I63
I393
tp2847
a(I36
I60
I393
tp2848
a(I35
I58
I393
tp2849
a(I34
I55
I393
tp2850
a(I33
I51
I392
tp2851
a(I32
I47
I392
tp2852
a(I31
I43
I391
tp2853
a(I30
I112
I391
tp2854
a(I29
I112
I390
tp2855
a(I30
I112
I389
tp2856
a(I31
I112
I389
tp2857
a(I32
I113
I389
tp2858
a(I33
I114
I389
tp2859
a(I34
I115
I389
tp2860
a(I35
I117
I389
tp2861
a(I36
I118
I389
tp2862
a(I37
I121
I389
tp2863
a(I38
I127
I389
tp2864
a(I39
I67
I389
tp2865
a(I40
I68
I389
tp2866
a(I40
I69
I389
tp2867
a(I41
I70
I389
tp2868
a(I41
I70
I389
tp2869
a(I41
I71
I389
tp2870
a(I41
I72
I389
tp2871
a(I42
I73
I389
tp2872
a(I42
I73
I389
tp2873
a(I42
I74
I389
tp2874
a(I43
I75
I389
tp2875
a(I43
I75
I389
tp2876
a(I43
I76
I389
tp2877
a(I44
I77
I389
tp2878
a(I44
I77
I389
tp2879
a(I44
I78
I389
tp2880
a(I44
I79
I389
tp2881
a(I45
I80
I389
tp2882
a(I45
I80
I389
tp2883
a(I45
I81
I389
tp2884
a(I45
I82
I389
tp2885
a(I46
I83
I389
tp2886
a(I46
I83
I389
tp2887
a(I46
I84
I389
tp2888
a(I46
I85
I389
tp2889
a(I46
I86
I389
tp2890
a(I47
I87
I389
tp2891
a(I47
I87
I389
tp2892
a(I47
I88
I389
tp2893
a(I47
I89
I389
tp2894
a(I47
I90
I389
tp2895
a(I47
I91
I389
tp2896
a(I47
I92
I389
tp2897
a(I47
I93
I389
tp2898
a(I48
I94
I388
tp2899
a(I48
I94
I388
tp2900
a(I48
I95
I388
tp2901
a(I48
I96
I388
tp2902
a(I48
I97
I388
tp2903
a(I48
I98
I388
tp2904
a(I48
I99
I388
tp2905
a(I48
I100
I388
tp2906
a(I49
I101
I388
tp2907
a(I49
I101
I388
tp2908
a(I49
I102
I388
tp2909
a(I49
I103
I388
tp2910
a(I50
I104
I388
tp2911
a(I50
I104
I388
tp2912
a(I50
I105
I388
tp2913
a(I50
I106
I388
tp2914
a(I51
I107
I388
tp2915
a(I51
I107
I388
tp2916
a(I51
I108
I388
tp2917
a(I52
I109
I388
tp2918
a(I52
I109
I388
tp2919
a(I52
I110
I388
tp2920
a(I53
I111
I388
tp2921
a(I53
I111
I388
tp2922
a(I54
I112
I388
tp2923
a(I55
I113
I388
tp2924
a(I56
I114
I387
tp2925
a(I57
I115
I387
tp2926
a(I58
I115
I387
tp2927
a(I59
I116
I387
tp2928
a(I60
I116
I387
tp2929
a(I61
I117
I386
tp2930
a(I62
I117
I386
tp2931
a(I63
I117
I386
tp2932
a(I64
I118
I386
tp2933
a(I65
I118
I386
tp2934
a(I66
I118
I385
tp2935
a(I67
I118
I385
tp2936
a(I68
I118
I385
tp2937
a(I69
I119
I385
tp2938
a(I70
I119
I384
tp2939
a(I71
I119
I384
tp2940
a(I72
I119
I383
tp2941
a(I73
I119
I383
tp2942
a(I74
I119
I383
tp2943
a(I75
I120
I382
tp2944
a(I76
I120
I382
tp2945
a(I77
I120
I381
tp2946
a(I78
I120
I381
tp2947
a(I79
I120
I380
tp2948
a(I80
I120
I380
tp2949
a(I81
I119
I379
tp2950
a(I82
I119
I379
tp2951
a(I83
I119
I379
tp2952
a(I84
I119
I378
tp2953
a(I85
I119
I377
tp2954
a(I86
I119
I377
tp2955
a(I87
I118
I376
tp2956
a(I88
I118
I375
tp2957
a(I89
I118
I374
tp2958
a(I90
I118
I373
tp2959
a(I91
I118
I373
tp2960
a(I92
I118
I372
tp2961
a(I93
I118
I371
tp2962
a(I94
I118
I370
tp2963
a(I95
I118
I369
tp2964
a(I96
I118
I368
tp2965
a(I96
I118
I367
tp2966
a(I97
I117
I366
tp2967
a(I98
I117
I365
tp2968
a(I99
I117
I364
tp2969
a(I100
I117
I363
tp2970
a(I100
I117
I362
tp2971
a(I100
I117
I361
tp2972
a(I101
I117
I360
tp2973
a(I101
I117
I359
tp2974
a(I102
I117
I358
tp2975
a(I103
I117
I357
tp2976
a(I103
I117
I356
tp2977
a(I104
I117
I355
tp2978
a(I104
I117
I354
tp2979
a(I104
I117
I353
tp2980
a(I104
I117
I352
tp2981
a(I104
I117
I351
tp2982
a(I104
I117
I350
tp2983
a(I105
I117
I349
tp2984
a(I105
I117
I348
tp2985
a(I105
I117
I347
tp2986
a(I105
I117
I346
tp2987
a(I105
I117
I345
tp2988
a(I105
I117
I344
tp2989
a(I106
I117
I343
tp2990
a(I106
I117
I342
tp2991
a(I106
I117
I341
tp2992
a(I106
I117
I340
tp2993
a(I107
I117
I339
tp2994
a(I107
I117
I338
tp2995
a(I107
I117
I337
tp2996
a(I107
I117
I336
tp2997
a(I107
I117
I335
tp2998
a(I106
I117
I334
tp2999
a(I106
I117
I333
tp3000
a(I106
I117
I332
tp3001
a(I106
I117
I331
tp3002
a(I106
I117
I330
tp3003
a(I106
I117
I329
tp3004
a(I106
I117
I328
tp3005
a(I106
I117
I327
tp3006
a(I105
I117
I326
tp3007
a(I105
I117
I325
tp3008
a(I105
I117
I324
tp3009
a(I105
I117
I323
tp3010
a(I104
I117
I322
tp3011
a(I104
I117
I321
tp3012
a(I104
I117
I320
tp3013
a(I104
I277
I319
tp3014
a(I104
I204
I318
tp3015
a(I104
I204
I317
tp3016
a(I104
I204
I316
tp3017
a(I103
I204
I315
tp3018
a(I103
I204
I314
tp3019
a(I102
I204
I313
tp3020
a(I102
I204
I312
tp3021
a(I102
I204
I311
tp3022
a(I101
I204
I310
tp3023
a(I101
I204
I309
tp3024
a(I100
I204
I308
tp3025
a(I100
I204
I307
tp3026
a(I100
I204
I306
tp3027
a(I100
I204
I305
tp3028
a(I100
I204
I304
tp3029
a(I99
I204
I303
tp3030
a(I99
I204
I302
tp3031
a(I98
I204
I301
tp3032
a(I98
I204
I300
tp3033
a(I97
I204
I299
tp3034
a(I97
I204
I298
tp3035
a(I96
I204
I297
tp3036
a(I96
I204
I296
tp3037
a(I96
I204
I295
tp3038
a(I96
I204
I294
tp3039
a(I95
I204
I293
tp3040
a(I94
I204
I292
tp3041
a(I94
I204
I291
tp3042
a(I93
I204
I290
tp3043
a(I93
I204
I289
tp3044
a(I92
I204
I288
tp3045
a(I92
I204
I287
tp3046
a(I92
I204
I286
tp3047
a(I91
I203
I285
tp3048
a(I91
I203
I284
tp3049
a(I90
I203
I283
tp3050
a(I89
I203
I282
tp3051
a(I89
I203
I281
tp3052
a(I88
I203
I280
tp3053
a(I88
I203
I279
tp3054
a(I88
I203
I278
tp3055
a(I87
I203
I277
tp3056
a(I86
I203
I276
tp3057
a(I86
I203
I275
tp3058
a(I85
I203
I274
tp3059
a(I84
I203
I273
tp3060
a(I84
I203
I272
tp3061
a(I84
I203
I271
tp3062
a(I83
I203
I270
tp3063
a(I82
I203
I269
tp3064
a(I81
I203
I268
tp3065
a(I80
I203
I267
tp3066
a(I80
I203
I266
tp3067
a(I80
I203
I265
tp3068
a(I79
I203
I264
tp3069
a(I78
I203
I263
tp3070
a(I77
I203
I262
tp3071
a(I76
I203
I261
tp3072
a(I76
I203
I260
tp3073
a(I75
I204
I259
tp3074
a(I74
I204
I258
tp3075
a(I73
I204
I257
tp3076
a(I72
I204
I256
tp3077
a(I72
I204
I255
tp3078
a(I71
I204
I254
tp3079
a(I70
I204
I254
tp3080
a(I69
I204
I253
tp3081
a(I68
I204
I252
tp3082
a(I68
I204
I251
tp3083
a(I67
I204
I250
tp3084
a(I66
I204
I249
tp3085
a(I65
I204
I249
tp3086
a(I64
I204
I248
tp3087
a(I63
I204
I247
tp3088
a(I62
I203
I246
tp3089
a(I61
I203
I245
tp3090
a(I60
I203
I244
tp3091
a(I59
I203
I243
tp3092
a(I58
I203
I242
tp3093
a(I57
I203
I242
tp3094
a(I56
I202
I241
tp3095
a(I55
I202
I240
tp3096
a(I54
I202
I240
tp3097
a(I53
I202
I239
tp3098
a(I52
I202
I239
tp3099
a(I51
I202
I238
tp3100
a(I50
I202
I237
tp3101
a(I49
I202
I237
tp3102
a(I48
I202
I236
tp3103
a(I47
I202
I236
tp3104
a(I46
I201
I235
tp3105
a(I45
I201
I235
tp3106
a(I44
I201
I235
tp3107
a(I43
I201
I234
tp3108
a(I42
I201
I234
tp3109
a(I41
I201
I233
tp3110
a(I40
I200
I233
tp3111
a(I39
I200
I233
tp3112
a(I38
I127
I232
tp3113
a(I37
I121
I232
tp3114
a(I36
I118
I232
tp3115
a(I35
I117
I231
tp3116
a(I34
I115
I231
tp3117
a(I33
I114
I231
tp3118
a(I32
I113
I231
tp3119
a(I31
I112
I231
tp3120
a(I30
I112
I230
tp3121
a(I29
I112
I230
tp3122
a(I28
I112
I230
tp3123
a(I27
I112
I230
tp3124
a(I26
I113
I230
tp3125
a(I25
I113
I230
tp3126
a(I24
I114
I230
tp3127
a(I23
I115
I230
tp3128
a(I22
I116
I230
tp3129
a(I21
I117
I230
tp3130
a(I20
I118
I230
tp3131
a(I19
I120
I230
tp3132
a(I18
I123
I230
tp3133
a(I17
I125
I230
tp3134
a(I16
I128
I230
tp3135
a(I15
I132
I230
tp3136
a(I14
I137
I230
tp3137
a(I13
I143
I230
tp3138
a(I12
I230
I230
tp3139
a(I11
I234
I231
tp3140
a(I10
I238
I231
tp3141
a(I9
I242
I231
tp3142
a(I8
I247
I231
tp3143
a(I8
I248
I232
tp3144
a(I8
I247
I233
tp3145
a(I9
I242
I234
tp3146
a(I10
I238
I234
tp3147
a(I11
I234
I235
tp3148
a(I12
I231
I236
tp3149
a(I12
I230
I237
tp3150
a(I13
I226
I238
tp3151
a(I14
I222
I239
tp3152
a(I15
I218
I240
tp3153
a(I16
I215
I241
tp3154
a(I16
I214
I242
tp3155
a(I17
I211
I243
tp3156
a(I18
I207
I244
tp3157
a(I19
I203
I245
tp3158
a(I20
I198
I246
tp3159
a(I20
I197
I247
tp3160
a(I21
I192
I248
tp3161
a(I22
I191
I249
tp3162
a(I22
I191
I250
tp3163
a(I23
I192
I251
tp3164
a(I24
I193
I252
tp3165
a(I24
I193
I253
tp3166
a(I24
I193
I254
tp3167
a(I25
I194
I255
tp3168
a(I25
I194
I256
tp3169
a(I26
I194
I257
tp3170
a(I27
I195
I258
tp3171
a(I27
I195
I259
tp3172
a(I28
I196
I260
tp3173
a(I28
I196
I261
tp3174
a(I28
I196
I262
tp3175
a(I28
I196
I263
tp3176
a(I28
I196
I264
tp3177
a(I29
I196
I265
tp3178
a(I29
I196
I266
tp3179
a(I29
I196
I267
tp3180
a(I29
I196
I268
tp3181
a(I29
I196
I269
tp3182
a(I30
I197
I270
tp3183
a(I30
I197
I271
tp3184
a(I30
I197
I272
tp3185
a(I30
I197
I273
tp3186
a(I30
I197
I274
tp3187
a(I29
I196
I275
tp3188
a(I29
I196
I276
tp3189
a(I29
I196
I277
tp3190
a(I29
I196
I278
tp3191
a(I28
I196
I279
tp3192
a(I28
I196
I280
tp3193
a(I28
I196
I281
tp3194
a(I27
I195
I282
tp3195
a(I26
I194
I283
tp3196
a(I25
I194
I284
tp3197
a(I24
I193
I284
tp3198
a(I23
I192
I285
tp3199
a(I22
I191
I285
tp3200
a(I21
I192
I285
tp3201
a(I20
I197
I284
tp3202
a(I19
I203
I283
tp3203
a(I18
I207
I283
tp3204
a(I17
I211
I282
tp3205
a(I17
I212
I282
tp3206
a(I17
I213
I282
tp3207
a(I16
I214
I282
tp3208
a(I16
I214
I282
tp3209
a(I16
I214
I281
tp3210
a(I15
I218
I280
tp3211
a(I14
I222
I279
tp3212
a(I13
I226
I278
tp3213
a(I12
I230
I277
tp3214
a(I12
I231
I276
tp3215
a(I11
I234
I275
tp3216
a(I10
I238
I274
tp3217
a(I9
I242
I273
tp3218
a(I8
I247
I272
tp3219
a(I8
I248
I271
tp3220
a(I7
I251
I270
tp3221
a(I6
I256
I269
tp3222
a(I6
I260
I268
tp3223
a(I5
I261
I267
tp3224
a(I4
I267
I266
tp3225
a(I4
I272
I265
tp3226
a(I4
I272
I264
tp3227
a(I3
I273
I263
tp3228
a(I2
I279
I262
tp3229
a(I1
I289
I261
tp3230
a(I0
I293
I261
tp3231
a(I0
I303
I262
tp3232
a(I0
I302
I263
tp3233
a(I0
I301
I264
tp3234
a(I0
I300
I265
tp3235
a(I0
I299
I266
tp3236
a(I0
I298
I267
tp3237
a(I0
I297
I268
tp3238
a(I0
I296
I269
tp3239
a(I0
I295
I270
tp3240
a(I0
I294
I271
tp3241
a(I0
I295
I272
tp3242
a(I0
I296
I273
tp3243
a(I0
I297
I274
tp3244
a(I0
I298
I275
tp3245
a(I0
I299
I276
tp3246
a(I0
I300
I277
tp3247
a(I0
I301
I278
tp3248
a(I0
I302
I279
tp3249
a(I0
I303
I280
tp3250
a(I1
I304
I281
tp3251
a(I1
I316
I282
tp3252
a(I1
I317
I283
tp3253
a(I2
I318
I284
tp3254
a(I2
I325
I285
tp3255
a(I3
I326
I286
tp3256
a(I3
I332
I287
tp3257
a(I4
I333
I288
tp3258
a(I4
I336
I289
tp3259
a(I4
I337
I290
tp3260
a(I4
I338
I291
tp3261
a(I5
I339
I292
tp3262
a(I6
I344
I293
tp3263
a(I6
I347
I294
tp3264
a(I7
I348
I295
tp3265
a(I8
I353
I296
tp3266
a(I8
I355
I297
tp3267
a(I8
I356
I298
tp3268
a(I9
I357
I299
tp3269
a(I10
I360
I300
tp3270
a(I11
I364
I301
tp3271
a(I12
I367
I302
tp3272
a(I12
I367
I303
tp3273
a(I13
I370
I303
tp3274
a(I14
I373
I304
tp3275
a(I15
I376
I305
tp3276
a(I16
I379
I306
tp3277
a(I17
I382
I307
tp3278
a(I18
I384
I308
tp3279
a(I19
I387
I309
tp3280
a(I20
I389
I310
tp3281
a(I21
I391
I311
tp3282
a(I22
I394
I311
tp3283
a(I23
I396
I312
tp3284
a(I24
I398
I313
tp3285
a(I25
I400
I313
tp3286
a(I26
I401
I314
tp3287
a(I27
I402
I314
tp3288
a(I28
I352
I315
tp3289
a(I29
I349
I316
tp3290
a(I30
I265
I316
tp3291
a(I31
I262
I317
tp3292
a(I32
I259
I318
tp3293
a(I33
I258
I318
tp3294
a(I34
I256
I318
tp3295
a(I35
I255
I319
tp3296
a(I36
I254
I319
tp3297
a(I37
I253
I320
tp3298
a(I38
I253
I320
tp3299
a(I39
I252
I320
tp3300
a(I40
I251
I321
tp3301
a(I41
I251
I321
tp3302
a(I42
I250
I321
tp3303
a(I43
I250
I321
tp3304
a(I44
I249
I322
tp3305
a(I45
I249
I322
tp3306
a(I46
I249
I323
tp3307
a(I47
I248
I323
tp3308
a(I48
I248
I323
tp3309
a(I49
I248
I323
tp3310
a(I50
I247
I324
tp3311
a(I51
I247
I324
tp3312
a(I52
I247
I324
tp3313
a(I53
I246
I324
tp3314
a(I54
I246
I324
tp3315
a(I55
I246
I324
tp3316
a(I56
I245
I325
tp3317
a(I57
I245
I325
tp3318
a(I58
I245
I325
tp3319
a(I59
I245
I325
tp3320
a(I60
I245
I325
tp3321
a(I61
I244
I325
tp3322
a(I62
I244
I325
tp3323
a(I63
I244
I325
tp3324
a(I64
I244
I325
tp3325
a(I65
I244
I326
tp3326
a(I66
I244
I326
tp3327
a(I67
I244
I326
tp3328
a(I68
I243
I326
tp3329
a(I69
I243
I326
tp3330
a(I70
I243
I326
tp3331
a(I71
I243
I326
tp3332
a(I72
I243
I326
tp3333
a(I73
I243
I326
tp3334
a(I74
I243
I326
tp3335
a(I75
I244
I326
tp3336
a(I76
I244
I325
tp3337
a(I77
I244
I325
tp3338
a(I78
I244
I325
tp3339
a(I79
I244
I325
tp3340
a(I80
I244
I325
tp3341
a(I81
I245
I325
tp3342
a(I82
I245
I325
tp3343
a(I83
I245
I325
tp3344
a(I84
I246
I324
tp3345
a(I85
I246
I324
tp3346
a(I86
I247
I324
tp3347
a(I87
I247
I324
tp3348
a(I88
I248
I324
tp3349
a(I89
I248
I324
tp3350
a(I90
I249
I324
tp3351
a(I91
I250
I323
tp3352
a(I92
I251
I323
tp3353
a(I93
I296
I323
tp3354
a(I94
I294
I323
tp3355
a(I95
I293
I322
tp3356
a(I96
I291
I322
tp3357
a(I97
I290
I322
tp3358
a(I98
I336
I322
tp3359
a(I98
I288
I321
tp3360
a(I99
I286
I321
tp3361
a(I100
I285
I321
tp3362
a(I101
I283
I320
tp3363
a(I102
I281
I320
tp3364
a(I103
I279
I319
tp3365
a(I104
I277
I319
tp3366
a(I105
I204
I319
tp3367
a(I106
I204
I319
tp3368
a(I107
I204
I318
tp3369
a(I108
I204
I317
tp3370
a(I109
I204
I317
tp3371
a(I110
I204
I316
tp3372
a(I111
I204
I316
tp3373
a(I112
I204
I315
tp3374
a(I113
I204
I314
tp3375
a(I114
I204
I314
tp3376
a(I115
I204
I313
tp3377
a(I116
I204
I312
tp3378
a(I117
I204
I312
tp3379
a(I118
I204
I311
tp3380
a(I119
I204
I310
tp3381
a(I120
I204
I309
tp3382
a(I121
I204
I309
tp3383
a(I122
I203
I308
tp3384
a(I123
I203
I307
tp3385
a(I124
I203
I306
tp3386
a(I124
I247
I305
tp3387
a(I125
I203
I305
tp3388
a(I126
I203
I304
tp3389
a(I127
I202
I303
tp3390
a(I128
I202
I302
tp3391
a(I128
I202
I301
tp3392
a(I129
I202
I300
tp3393
a(I130
I201
I299
tp3394
a(I131
I201
I298
tp3395
a(I132
I201
I297
tp3396
a(I132
I201
I296
tp3397
a(I132
I201
I295
tp3398
a(I133
I200
I294
tp3399
a(I134
I200
I293
tp3400
a(I134
I200
I292
tp3401
a(I135
I199
I291
tp3402
a(I136
I198
I290
tp3403
a(I136
I198
I289
tp3404
a(I136
I198
I288
tp3405
a(I136
I198
I287
tp3406
a(I136
I198
I286
tp3407
a(I137
I198
I285
tp3408
a(I137
I198
I284
tp3409
a(I137
I198
I283
tp3410
a(I138
I197
I282
tp3411
a(I138
I197
I281
tp3412
a(I138
I197
I280
tp3413
a(I139
I196
I279
tp3414
a(I139
I196
I278
tp3415
a(I140
I195
I277
tp3416
a(I140
I195
I276
tp3417
a(I140
I195
I275
tp3418
a(I140
I195
I274
tp3419
a(I140
I195
I273
tp3420
a(I140
I195
I272
tp3421
a(I140
I195
I271
tp3422
a(I140
I195
I270
tp3423
a(I140
I195
I269
tp3424
a(I140
I195
I268
tp3425
a(I140
I195
I267
tp3426
a(I139
I196
I266
tp3427
a(I139
I196
I265
tp3428
a(I138
I197
I264
tp3429
a(I138
I197
I263
tp3430
a(I139
I196
I262
tp3431
a(I139
I196
I261
tp3432
a(I139
I196
I260
tp3433
a(I140
I195
I259
tp3434
a(I140
I195
I258
tp3435
a(I141
I194
I257
tp3436
a(I142
I193
I256
tp3437
a(I143
I192
I256
tp3438
a(I144
I191
I255
tp3439
a(I144
I190
I254
tp3440
a(I145
I189
I254
tp3441
a(I146
I240
I254
tp3442
a(I147
I240
I254
tp3443
a(I148
I240
I254
tp3444
a(I149
I240
I254
tp3445
a(I150
I240
I254
tp3446
a(I151
I241
I254
tp3447
a(I152
I241
I254
tp3448
a(I153
I242
I254
tp3449
a(I154
I242
I254
tp3450
a(I155
I243
I254
tp3451
a(I156
I244
I254
tp3452
a(I157
I245
I254
tp3453
a(I158
I246
I254
tp3454
a(I159
I247
I254
tp3455
a(I160
I248
I254
tp3456
a(I161
I249
I254
tp3457
a(I162
I250
I254
tp3458
a(I163
I251
I254
tp3459
a(I164
I253
I254
tp3460
a(I165
I255
I255
tp3461
a(I166
I257
I255
tp3462
a(I167
I259
I255
tp3463
a(I168
I262
I255
tp3464
a(I169
I266
I256
tp3465
a(I170
I271
I256
tp3466
a(I171
I273
I256
tp3467
a(I172
I273
I257
tp3468
a(I173
I273
I258
tp3469
a(I174
I273
I258
tp3470
a(I175
I273
I259
tp3471
a(I176
I273
I260
tp3472
a(I177
I273
I261
tp3473
a(I178
I273
I262
tp3474
a(I178
I273
I263
tp3475
a(I178
I273
I264
tp3476
a(I179
I273
I265
tp3477
a(I179
I273
I266
tp3478
a(I179
I273
I267
tp3479
a(I179
I273
I268
tp3480
a(I178
I273
I269
tp3481
a(I178
I273
I270
tp3482
a(I178
I273
I271
tp3483
a(I177
I273
I272
tp3484
a(I176
I273
I273
tp3485
a(I176
I273
I274
tp3486
a(I175
I273
I275
tp3487
a(I174
I273
I275
tp3488
a(I173
I273
I276
tp3489
a(I172
I273
I277
tp3490
a(I171
I273
I277
tp3491
a(I170
I273
I277
tp3492
a(I170
I272
I277
tp3493
a(I170
I271
I277
tp3494
a(I169
I270
I277
tp3495
a(I169
I270
I277
tp3496
a(I169
I269
I277
tp3497
a(I169
I268
I277
tp3498
a(I169
I267
I277
tp3499
a(I169
I266
I277
tp3500
a(I168
I265
I276
tp3501
a(I168
I265
I276
tp3502
a(I168
I264
I276
tp3503
a(I168
I263
I276
tp3504
a(I168
I262
I276
tp3505
a(I167
I261
I276
tp3506
a(I167
I261
I276
tp3507
a(I167
I260
I276
tp3508
a(I167
I259
I276
tp3509
a(I166
I258
I276
tp3510
a(I166
I258
I276
tp3511
a(I166
I257
I276
tp3512
a(I165
I256
I275
tp3513
a(I165
I256
I275
tp3514
a(I165
I255
I275
tp3515
a(I164
I254
I275
tp3516
a(I164
I254
I275
tp3517
a(I164
I253
I275
tp3518
a(I163
I252
I274
tp3519
a(I163
I252
I274
tp3520
a(I163
I251
I274
tp3521
a(I162
I250
I273
tp3522
a(I162
I250
I273
tp3523
a(I161
I249
I273
tp3524
a(I160
I248
I272
tp3525
a(I159
I247
I271
tp3526
a(I158
I246
I270
tp3527
a(I157
I245
I270
tp3528
a(I156
I244
I269
tp3529
a(I156
I244
I268
tp3530
a(I155
I243
I267
tp3531
a(I154
I242
I266
tp3532
a(I153
I242
I265
tp3533
a(I152
I241
I264
tp3534
a(I151
I241
I263
tp3535
a(I150
I240
I262
tp3536
a(I150
I240
I261
tp3537
a(I149
I240
I260
tp3538
a(I148
I240
I259
tp3539
a(I148
I240
I258
tp3540
a(I147
I240
I257
tp3541
a(I147
I240
I256
tp3542
a(I146
I240
I255
tp3543
a(I146
I240
I254
tp3544
a(I146
I188
I253
tp3545
a(I145
I189
I252
tp3546
a(I144
I190
I251
tp3547
a(I144
I190
I250
tp3548
a(I144
I190
I249
tp3549
a(I144
I191
I248
tp3550
a(I143
I192
I247
tp3551
a(I143
I192
I246
tp3552
a(I142
I193
I245
tp3553
a(I142
I193
I244
tp3554
a(I141
I194
I243
tp3555
a(I141
I194
I242
tp3556
a(I141
I194
I241
tp3557
a(I141
I194
I240
tp3558
a(I140
I195
I239
tp3559
a(I140
I195
I238
tp3560
a(I140
I195
I237
tp3561
a(I140
I195
I236
tp3562
a(I140
I195
I235
tp3563
a(I140
I195
I234
tp3564
a(I139
I196
I233
tp3565
a(I139
I196
I232
tp3566
a(I139
I196
I231
tp3567
a(I139
I196
I230
tp3568
a(I140
I195
I229
tp3569
a(I140
I195
I228
tp3570
a(I140
I195
I227
tp3571
a(I140
I195
I226
tp3572
a(I140
I195
I225
tp3573
a(I140
I195
I224
tp3574
a(I140
I195
I223
tp3575
a(I141
I194
I222
tp3576
a(I141
I194
I221
tp3577
a(I141
I194
I220
tp3578
a(I141
I194
I219
tp3579
a(I142
I193
I218
tp3580
a(I142
I193
I217
tp3581
a(I143
I192
I216
tp3582
a(I143
I192
I215
tp3583
a(I143
I192
I214
tp3584
a(I144
I191
I213
tp3585
a(I144
I190
I212
tp3586
a(I144
I190
I211
tp3587
a(I145
I124
I210
tp3588
a(I146
I125
I209
tp3589
a(I146
I125
I208
tp3590
a(I146
I125
I207
tp3591
a(I146
I125
I206
tp3592
a(I146
I125
I205
tp3593
a(I147
I126
I204
tp3594
a(I148
I127
I203
tp3595
a(I148
I127
I202
tp3596
a(I148
I127
I201
tp3597
a(I149
I128
I200
tp3598
a(I149
I129
I200
tp3599
a(I150
I130
I199
tp3600
a(I150
I130
I199
tp3601
a(I151
I131
I198
tp3602
a(I151
I132
I198
tp3603
a(I151
I133
I198
tp3604
a(I152
I134
I197
tp3605
a(I152
I134
I197
tp3606
a(I152
I134
I196
tp3607
a(I152
I135
I196
tp3608
a(I152
I136
I196
tp3609
a(I153
I137
I195
tp3610
a(I153
I137
I195
tp3611
a(I153
I138
I195
tp3612
a(I153
I139
I195
tp3613
a(I153
I140
I195
tp3614
a(I154
I141
I195
tp3615
a(I154
I141
I195
tp3616
a(I154
I142
I195
tp3617
a(I154
I143
I195
tp3618
a(I154
I144
I195
tp3619
a(I154
I145
I195
tp3620
a(I154
I146
I195
tp3621
a(I154
I147
I195
tp3622
a(I154
I148
I195
tp3623
a(I154
I149
I195
tp3624
a(I154
I150
I195
tp3625
a(I154
I151
I195
tp3626
a(I154
I152
I195
tp3627
a(I154
I153
I195
tp3628
a(I154
I154
I195
tp3629
a(I154
I155
I195
tp3630
a(I154
I156
I195
tp3631
a(I154
I157
I195
tp3632
a(I154
I158
I195
tp3633
a(I154
I159
I195
tp3634
a(I153
I160
I195
tp3635
a(I153
I161
I195
tp3636
a(I153
I162
I195
tp3637
a(I153
I163
I195
tp3638
a(I153
I164
I195
tp3639
a(I153
I165
I195
tp3640
a(I153
I166
I195
tp3641
a(I153
I167
I195
tp3642
a(I152
I168
I196
tp3643
a(I152
I169
I196
tp3644
a(I152
I170
I196
tp3645
a(I152
I171
I196
tp3646
a(I152
I172
I197
tp3647
a(I151
I173
I198
tp3648
a(I151
I174
I198
tp3649
a(I151
I175
I198
tp3650
a(I151
I176
I198
tp3651
a(I150
I177
I199
tp3652
a(I150
I178
I199
tp3653
a(I150
I179
I199
tp3654
a(I149
I180
I200
tp3655
a(I149
I181
I200
tp3656
a(I148
I182
I201
tp3657
a(I148
I183
I202
tp3658
a(I148
I184
I203
tp3659
a(I147
I185
I204
tp3660
a(I147
I186
I204
tp3661
a(I146
I187
I205
tp3662
a(I146
I187
I206
tp3663
a(I146
I187
I207
tp3664
a(I146
I187
I208
tp3665
a(I146
I188
I209
tp3666
a(I145
I189
I210
tp3667
a(I144
I190
I211
tp3668
a(I144
I190
I212
tp3669
a(I144
I191
I213
tp3670
a(I143
I192
I214
tp3671
a(I143
I192
I215
tp3672
a(I143
I192
I216
tp3673
a(I142
I193
I217
tp3674
a(I142
I193
I218
tp3675
a(I141
I194
I219
tp3676
a(I141
I194
I220
tp3677
a(I141
I194
I221
tp3678
a(I141
I194
I222
tp3679
a(I140
I195
I223
tp3680
a(I140
I195
I224
tp3681
a(I140
I195
I225
tp3682
a(I140
I195
I226
tp3683
a(I140
I195
I227
tp3684
a(I140
I195
I228
tp3685
a(I140
I195
I229
tp3686
a(I139
I196
I230
tp3687
a(I139
I196
I231
tp3688
a(I139
I196
I232
tp3689
a(I139
I196
I233
tp3690
a(I140
I195
I234
tp3691
a(I140
I195
I235
tp3692
a(I140
I195
I236
tp3693
a(I140
I195
I237
tp3694
a(I140
I195
I238
tp3695
a(I140
I195
I239
tp3696
a(I141
I194
I240
tp3697
a(I141
I194
I241
tp3698
a(I141
I194
I242
tp3699
a(I141
I194
I243
tp3700
a(I142
I193
I244
tp3701
a(I142
I193
I245
tp3702
a(I143
I192
I246
tp3703
a(I143
I192
I247
tp3704
a(I144
I191
I248
tp3705
a(I144
I190
I249
tp3706
a(I144
I190
I250
tp3707
a(I144
I190
I251
tp3708
a(I145
I189
I252
tp3709
a(I146
I188
I253
tp3710
a(I145
I189
I254
tp3711
a(I144
I190
I254
tp3712
a(I144
I191
I255
tp3713
a(I143
I192
I256
tp3714
a(I142
I193
I256
tp3715
a(I141
I194
I257
tp3716
a(I140
I195
I258
tp3717
a(I140
I195
I259
tp3718
a(I139
I196
I260
tp3719
a(I139
I196
I261
tp3720
a(I139
I196
I262
tp3721
a(I138
I197
I263
tp3722
a(I138
I197
I264
tp3723
a(I139
I196
I265
tp3724
a(I139
I196
I266
tp3725
a(I140
I195
I267
tp3726
a(I140
I195
I268
tp3727
a(I140
I195
I269
tp3728
a(I140
I195
I270
tp3729
a(I140
I195
I271
tp3730
a(I140
I195
I272
tp3731
a(I140
I195
I273
tp3732
a(I140
I195
I274
tp3733
a(I140
I195
I275
tp3734
a(I140
I195
I276
tp3735
a(I140
I195
I277
tp3736
a(I139
I196
I278
tp3737
a(I139
I196
I279
tp3738
a(I138
I197
I280
tp3739
a(I138
I197
I281
tp3740
a(I138
I197
I282
tp3741
a(I137
I198
I283
tp3742
a(I137
I198
I284
tp3743
a(I137
I198
I285
tp3744
a(I136
I198
I286
tp3745
a(I136
I198
I287
tp3746
a(I136
I198
I288
tp3747
a(I136
I198
I289
tp3748
a(I136
I198
I290
tp3749
a(I135
I199
I291
tp3750
a(I134
I200
I292
tp3751
a(I134
I200
I293
tp3752
a(I133
I200
I294
tp3753
a(I132
I201
I295
tp3754
a(I132
I201
I296
tp3755
a(I132
I201
I297
tp3756
a(I131
I201
I298
tp3757
a(I130
I201
I299
tp3758
a(I129
I202
I300
tp3759
a(I128
I202
I301
tp3760
a(I128
I202
I302
tp3761
a(I127
I202
I303
tp3762
a(I126
I203
I304
tp3763
a(I125
I203
I305
tp3764
a(I124
I203
I306
tp3765
a(I123
I203
I307
tp3766
a(I122
I203
I308
tp3767
a(I121
I204
I309
tp3768
a(I120
I204
I309
tp3769
a(I119
I204
I310
tp3770
a(I118
I204
I311
tp3771
a(I117
I204
I312
tp3772
a(I116
I204
I312
tp3773
a(I115
I204
I313
tp3774
a(I114
I204
I314
tp3775
a(I113
I204
I314
tp3776
a(I112
I204
I315
tp3777
a(I111
I204
I316
tp3778
a(I110
I204
I316
tp3779
a(I109
I204
I317
tp3780
a(I108
I204
I317
tp3781
a(I107
I204
I318
tp3782
a(I106
I204
I319
tp3783
a(I105
I204
I319
tp3784
a(I104
I204
I318
tp3785
a(I103
I204
I319
tp3786
a(I102
I204
I320
tp3787
a(I101
I204
I320
tp3788
a(I100
I204
I321
tp3789
a(I99
I204
I321
tp3790
a(I98
I204
I321
tp3791
a(I97
I204
I322
tp3792
a(I96
I204
I322
tp3793
a(I95
I204
I322
tp3794
a(I94
I204
I323
tp3795
a(I93
I204
I323
tp3796
a(I92
I204
I323
tp3797
a(I91
I203
I323
tp3798
a(I90
I203
I324
tp3799
a(I89
I203
I324
tp3800
a(I88
I203
I324
tp3801
a(I87
I203
I324
tp3802
a(I86
I203
I324
tp3803
a(I85
I203
I324
tp3804
a(I84
I203
I324
tp3805
a(I83
I203
I325
tp3806
a(I82
I203
I325
tp3807
a(I81
I203
I325
tp3808
a(I80
I203
I325
tp3809
a(I79
I203
I325
tp3810
a(I78
I203
I325
tp3811
a(I77
I203
I325
tp3812
a(I76
I203
I325
tp3813
a(I75
I204
I326
tp3814
a(I74
I204
I326
tp3815
a(I73
I204
I326
tp3816
a(I72
I204
I326
tp3817
a(I71
I204
I326
tp3818
a(I70
I204
I326
tp3819
a(I69
I204
I326
tp3820
a(I68
I204
I326
tp3821
a(I67
I204
I326
tp3822
a(I66
I204
I326
tp3823
a(I65
I204
I326
tp3824
a(I64
I204
I325
tp3825
a(I63
I204
I325
tp3826
a(I62
I203
I325
tp3827
a(I61
I203
I325
tp3828
a(I60
I203
I325
tp3829
a(I59
I203
I325
tp3830
a(I58
I203
I325
tp3831
a(I57
I203
I325
tp3832
a(I56
I202
I325
tp3833
a(I55
I202
I324
tp3834
a(I54
I202
I324
tp3835
a(I53
I202
I324
tp3836
a(I52
I202
I324
tp3837
a(I51
I202
I324
tp3838
a(I50
I202
I324
tp3839
a(I49
I202
I323
tp3840
a(I48
I202
I323
tp3841
a(I47
I202
I323
tp3842
a(I46
I201
I323
tp3843
a(I45
I201
I322
tp3844
a(I44
I201
I322
tp3845
a(I43
I201
I321
tp3846
a(I42
I201
I321
tp3847
a(I41
I201
I321
tp3848
a(I40
I200
I321
tp3849
a(I39
I200
I320
tp3850
a(I38
I200
I319
tp3851
a(I37
I200
I320
tp3852
a(I36
I199
I319
tp3853
a(I35
I199
I319
tp3854
a(I34
I199
I318
tp3855
a(I33
I198
I318
tp3856
a(I32
I198
I318
tp3857
a(I31
I197
I317
tp3858
a(I30
I197
I316
tp3859
a(I29
I196
I316
tp3860
a(I28
I196
I315
tp3861
a(I27
I195
I314
tp3862
a(I26
I194
I314
tp3863
a(I25
I194
I313
tp3864
a(I24
I193
I313
tp3865
a(I23
I192
I312
tp3866
a(I22
I191
I311
tp3867
a(I21
I192
I311
tp3868
a(I21
I193
I311
tp3869
a(I21
I194
I311
tp3870
a(I21
I195
I311
tp3871
a(I21
I196
I311
tp3872
a(I20
I197
I310
tp3873
a(I20
I198
I310
tp3874
a(I20
I199
I310
tp3875
a(I20
I200
I310
tp3876
a(I20
I201
I310
tp3877
a(I20
I202
I310
tp3878
a(I19
I203
I309
tp3879
a(I19
I204
I309
tp3880
a(I19
I205
I309
tp3881
a(I19
I206
I309
tp3882
a(I18
I207
I308
tp3883
a(I18
I208
I308
tp3884
a(I18
I209
I308
tp3885
a(I18
I210
I308
tp3886
a(I17
I211
I307
tp3887
a(I17
I212
I307
tp3888
a(I17
I213
I307
tp3889
a(I16
I214
I306
tp3890
a(I16
I215
I306
tp3891
a(I16
I216
I306
tp3892
a(I16
I217
I306
tp3893
a(I15
I218
I305
tp3894
a(I15
I219
I305
tp3895
a(I15
I220
I305
tp3896
a(I15
I221
I305
tp3897
a(I14
I222
I304
tp3898
a(I14
I223
I304
tp3899
a(I14
I224
I304
tp3900
a(I14
I225
I304
tp3901
a(I13
I226
I303
tp3902
a(I13
I227
I303
tp3903
a(I13
I228
I303
tp3904
a(I13
I229
I303
tp3905
a(I12
I230
I302
tp3906
a(I12
I231
I302
tp3907
a(I12
I232
I302
tp3908
a(I12
I233
I302
tp3909
a(I11
I234
I301
tp3910
a(I11
I235
I301
tp3911
a(I11
I236
I301
tp3912
a(I11
I237
I301
tp3913
a(I10
I238
I300
tp3914
a(I10
I239
I300
tp3915
a(I10
I240
I300
tp3916
a(I10
I241
I300
tp3917
a(I9
I242
I299
tp3918
a(I9
I243
I299
tp3919
a(I9
I244
I299
tp3920
a(I9
I245
I299
tp3921
a(I9
I246
I299
tp3922
a(I8
I247
I298
tp3923
a(I8
I248
I297
tp3924
a(I8
I249
I296
tp3925
a(I8
I250
I296
tp3926
a(I7
I251
I295
tp3927
a(I7
I252
I295
tp3928
a(I7
I253
I295
tp3929
a(I7
I254
I295
tp3930
a(I7
I255
I295
tp3931
a(I6
I256
I294
tp3932
a(I6
I257
I293
tp3933
a(I6
I258
I293
tp3934
a(I6
I259
I293
tp3935
a(I6
I260
I293
tp3936
a(I5
I261
I292
tp3937
a(I5
I262
I292
tp3938
a(I5
I263
I292
tp3939
a(I5
I264
I292
tp3940
a(I5
I265
I292
tp3941
a(I5
I266
I292
tp3942
a(I4
I267
I291
tp3943
a(I4
I268
I290
tp3944
a(I4
I269
I289
tp3945
a(I4
I270
I288
tp3946
a(I4
I271
I288
tp3947
a(I4
I272
I288
tp3948
a(I3
I273
I287
tp3949
a(I3
I274
I286
tp3950
a(I3
I275
I286
tp3951
a(I3
I276
I286
tp3952
a(I3
I277
I286
tp3953
a(I3
I278
I286
tp3954
a(I2
I279
I285
tp3955
a(I2
I280
I284
tp3956
a(I2
I281
I284
tp3957
a(I2
I282
I284
tp3958
a(I2
I283
I284
tp3959
a(I2
I284
I284
tp3960
a(I2
I285
I284
tp3961
a(I2
I286
I284
tp3962
a(I2
I287
I284
tp3963
a(I2
I288
I284
tp3964
a(I1
I289
I283
tp3965
a(I1
I290
I282
tp3966
a(I1
I291
I281
tp3967
a(I1
I292
I281
tp3968
a(I0
I293
I280
tp3969
a(I0
I294
I279
tp3970
a(I0
I295
I278
tp3971
a(I0
I296
I277
tp3972
a(I0
I297
I276
tp3973
a(I0
I298
I275
tp3974
a(I0
I299
I276
tp3975
a(I0
I300
I277
tp3976
a(I0
I301
I278
tp3977
a(I0
I302
I279
tp3978
a(I0
I303
I280
tp3979
a(I1
I304
I281
tp3980
a(I1
I305
I281
tp3981
a(I1
I306
I281
tp3982
a(I1
I307
I281
tp3983
a(I1
I308
I281
tp3984
a(I1
I309
I281
tp3985
a(I1
I310
I281
tp3986
a(I1
I311
I281
tp3987
a(I1
I312
I281
tp3988
a(I1
I313
I281
tp3989
a(I1
I314
I281
tp3990
a(I1
I315
I281
tp3991
a(I1
I316
I282
tp3992
a(I1
I317
I283
tp3993
a(I2
I318
I284
tp3994
a(I2
I319
I284
tp3995
a(I2
I320
I284
tp3996
a(I2
I321
I284
tp3997
a(I2
I322
I284
tp3998
a(I2
I323
I284
tp3999
a(I2
I324
I284
tp4000
a(I2
I325
I285
tp4001
a(I3
I326
I286
tp4002
a(I3
I327
I286
tp4003
a(I3
I328
I286
tp4004
a(I3
I329
I286
tp4005
a(I3
I330
I286
tp4006
a(I3
I331
I286
tp4007
a(I3
I332
I287
tp4008
a(I4
I333
I288
tp4009
a(I4
I334
I288
tp4010
a(I4
I335
I288
tp4011
a(I4
I336
I289
tp4012
a(I4
I337
I290
tp4013
a(I4
I338
I291
tp4014
a(I5
I339
I292
tp4015
a(I5
I340
I292
tp4016
a(I5
I341
I292
tp4017
a(I5
I342
I292
tp4018
a(I5
I343
I292
tp4019
a(I6
I344
I293
tp4020
a(I6
I345
I293
tp4021
a(I6
I346
I293
tp4022
a(I6
I347
I294
tp4023
a(I7
I348
I295
tp4024
a(I7
I349
I295
tp4025
a(I7
I350
I295
tp4026
a(I7
I351
I295
tp4027
a(I7
I352
I295
tp4028
a(I8
I353
I296
tp4029
a(I8
I354
I296
tp4030
a(I8
I355
I297
tp4031
a(I8
I356
I298
tp4032
a(I9
I357
I299
tp4033
a(I9
I358
I299
tp4034
a(I9
I359
I299
tp4035
a(I10
I360
I300
tp4036
a(I10
I361
I300
tp4037
a(I10
I362
I300
tp4038
a(I10
I363
I300
tp4039
a(I11
I364
I301
tp4040
a(I11
I365
I301
tp4041
a(I11
I366
I301
tp4042
a(I12
I367
I302
tp4043
a(I12
I368
I302
tp4044
a(I12
I369
I302
tp4045
a(I13
I370
I303
tp4046
a(I13
I371
I303
tp4047
a(I13
I372
I303
tp4048
a(I14
I373
I304
tp4049
a(I14
I374
I304
tp4050
a(I14
I375
I304
tp4051
a(I15
I376
I305
tp4052
a(I15
I377
I305
tp4053
a(I15
I378
I305
tp4054
a(I16
I379
I306
tp4055
a(I16
I380
I306
tp4056
a(I16
I381
I306
tp4057
a(I17
I382
I307
tp4058
a(I17
I383
I307
tp4059
a(I18
I384
I308
tp4060
a(I18
I385
I308
tp4061
a(I18
I386
I308
tp4062
a(I19
I387
I309
tp4063
a(I19
I388
I309
tp4064
a(I20
I389
I310
tp4065
a(I20
I390
I310
tp4066
a(I21
I391
I311
tp4067
a(I21
I392
I311
tp4068
a(I21
I393
I311
tp4069
a(I22
I394
I311
tp4070
a(I22
I395
I311
tp4071
a(I23
I396
I312
tp4072
a(I23
I397
I312
tp4073
a(I24
I398
I313
tp4074
a(I24
I399
I313
tp4075
a(I25
I400
I313
tp4076
a(I26
I401
I314
tp4077
a(I27
I402
I314
tp4078
a(I28
I403
I315
tp4079
a(I28
I404
I315
tp4080
a(I29
I405
I316
tp4081
a(I29
I406
I316
tp4082
a(I30
I407
I316
tp4083
a(I31
I408
I317
tp4084
a(I31
I409
I317
tp4085
a(I32
I410
I318
tp4086
a(I33
I411
I318
tp4087
a(I33
I412
I318
tp4088
a(I34
I413
I318
tp4089
a(I35
I414
I319
tp4090
a(I36
I415
I319
tp4091
a(I37
I416
I320
tp4092
a(I38
I417
I319
tp4093
a(I38
I418
I319
tp4094
a(I39
I419
I320
tp4095
a(I40
I420
I321
tp4096
a(I41
I421
I321
tp4097
a(I42
I422
I321
tp4098
a(I43
I422
I321
tp4099
a(I44
I423
I322
tp4100
a(I45
I424
I322
tp4101
a(I46
I425
I323
tp4102
a(I47
I425
I323
tp4103
a(I48
I426
I323
tp4104
a(I49
I427
I323
tp4105
a(I50
I427
I324
tp4106
a(I51
I428
I324
tp4107
a(I52
I428
I324
tp4108
a(I53
I428
I324
tp4109
a(I54
I429
I324
tp4110
a(I55
I429
I324
tp4111
a(I56
I429
I325
tp4112
a(I57
I430
I325
tp4113
a(I58
I430
I325
tp4114
a(I59
I431
I325
tp4115
a(I60
I431
I325
tp4116
a(I61
I431
I325
tp4117
a(I62
I431
I325
tp4118
a(I63
I431
I325
tp4119
a(I64
I430
I325
tp4120
a(I65
I430
I326
tp4121
a(I66
I430
I326
tp4122
a(I67
I429
I326
tp4123
a(I68
I429
I326
tp4124
a(I69
I429
I326
tp4125
a(I70
I429
I326
tp4126
a(I71
I429
I326
tp4127
a(I72
I429
I326
tp4128
a(I73
I428
I326
tp4129
a(I74
I428
I326
tp4130
a(I75
I428
I326
tp4131
a(I76
I427
I325
tp4132
a(I77
I427
I325
tp4133
a(I78
I427
I325
tp4134
a(I79
I426
I325
tp4135
a(I80
I426
I325
tp4136
a(I81
I426
I325
tp4137
a(I82
I425
I325
tp4138
a(I83
I425
I325
tp4139
a(I84
I424
I324
tp4140
a(I85
I424
I324
tp4141
a(I86
I423
I324
tp4142
a(I87
I423
I324
tp4143
a(I88
I422
I324
tp4144
a(I89
I422
I324
tp4145
a(I90
I421
I324
tp4146
a(I91
I420
I323
tp4147
a(I92
I420
I323
tp4148
a(I93
I419
I323
tp4149
a(I94
I418
I323
tp4150
a(I95
I417
I322
tp4151
a(I96
I417
I322
tp4152
a(I97
I416
I322
tp4153
a(I98
I415
I321
tp4154
a(I99
I414
I321
tp4155
a(I100
I413
I321
tp4156
a(I101
I412
I320
tp4157
a(I102
I411
I320
tp4158
a(I103
I410
I319
tp4159
a(I104
I409
I318
tp4160
a(I104
I408
I318
tp4161
a(I105
I407
I319
tp4162
a(I106
I406
I319
tp4163
a(I107
I405
I318
tp4164
a(I107
I404
I318
tp4165
a(I108
I403
I317
tp4166
a(I108
I402
I317
tp4167
a(I109
I401
I317
tp4168
a(I110
I400
I316
tp4169
a(I111
I399
I316
tp4170
a(I111
I398
I316
tp4171
a(I112
I397
I315
tp4172
a(I112
I396
I315
tp4173
a(I112
I395
I315
tp4174
a(I113
I394
I314
tp4175
a(I113
I393
I314
tp4176
a(I113
I392
I314
tp4177
a(I113
I391
I314
tp4178
a(I113
I390
I314
tp4179
a(I113
I389
I314
tp4180
a(I113
I388
I314
tp4181
a(I113
I387
I314
tp4182
a(I112
I386
I315
tp4183
a(I112
I385
I315
tp4184
a(I112
I384
I315
tp4185
a(I112
I383
I315
tp4186
a(I111
I382
I316
tp4187
a(I111
I381
I316
tp4188
a(I110
I380
I316
tp4189
a(I110
I379
I316
tp4190
a(I109
I378
I317
tp4191
a(I108
I377
I317
tp4192
a(I107
I376
I318
tp4193
a(I106
I375
I319
tp4194
a(I105
I374
I319
tp4195
a(I104
I373
I318
tp4196
a(I103
I373
I319
tp4197
a(I102
I372
I320
tp4198
a(I101
I372
I320
tp4199
a(I100
I372
I321
tp4200
a(I99
I371
I321
tp4201
a(I98
I371
I321
tp4202
a(I97
I371
I322
tp4203
a(I96
I371
I322
tp4204
a(I95
I370
I322
tp4205
a(I94
I370
I323
tp4206
a(I93
I369
I323
tp4207
a(I92
I368
I323
tp4208
a(I91
I367
I323
tp4209
a(I90
I366
I324
tp4210
a(I89
I365
I324
tp4211
a(I88
I365
I324
tp4212
a(I87
I364
I324
tp4213
a(I86
I363
I324
tp4214
a(I85
I363
I324
tp4215
a(I84
I362
I324
tp4216
a(I83
I362
I325
tp4217
a(I82
I362
I325
tp4218
a(I81
I361
I325
tp4219
a(I80
I361
I325
tp4220
a(I79
I361
I325
tp4221
a(I78
I361
I325
tp4222
a(I77
I361
I325
tp4223
a(I76
I361
I325
tp4224
a(I75
I361
I326
tp4225
a(I74
I360
I326
tp4226
a(I73
I360
I326
tp4227
a(I72
I360
I326
tp4228
a(I71
I360
I326
tp4229
a(I70
I360
I326
tp4230
a(I69
I361
I326
tp4231
a(I68
I361
I326
tp4232
a(I67
I361
I326
tp4233
a(I66
I361
I326
tp4234
a(I65
I361
I326
tp4235
a(I64
I361
I325
tp4236
a(I63
I361
I325
tp4237
a(I62
I361
I325
tp4238
a(I61
I361
I325
tp4239
a(I60
I361
I325
tp4240
a(I59
I361
I325
tp4241
a(I58
I361
I325
tp4242
a(I57
I362
I325
tp4243
a(I56
I362
I325
tp4244
a(I55
I362
I324
tp4245
a(I54
I362
I324
tp4246
a(I53
I362
I324
tp4247
a(I52
I362
I324
tp4248
a(I51
I363
I324
tp4249
a(I50
I363
I324
tp4250
a(I49
I363
I323
tp4251
a(I48
I363
I323
tp4252
a(I47
I363
I323
tp4253
a(I46
I363
I323
tp4254
a(I45
I363
I322
tp4255
a(I44
I364
I322
tp4256
a(I43
I364
I321
tp4257
a(I42
I364
I321
tp4258
a(I41
I364
I321
tp4259
a(I40
I364
I321
tp4260
a(I39
I365
I320
tp4261
a(I38
I365
I319
tp4262
a(I37
I365
I320
tp4263
a(I36
I365
I319
tp4264
a(I35
I365
I319
tp4265
a(I34
I364
I318
tp4266
a(I33
I363
I318
tp4267
a(I32
I362
I318
tp4268
a(I31
I361
I317
tp4269
a(I30
I360
I316
tp4270
a(I30
I359
I316
tp4271
a(I30
I358
I316
tp4272
a(I29
I357
I316
tp4273
a(I28
I356
I315
tp4274
a(I28
I355
I315
tp4275
a(I28
I354
I315
tp4276
a(I28
I353
I315
tp4277
a(I28
I352
I315
tp4278
a(I29
I351
I316
tp4279
a(I29
I350
I316
tp4280
a(I29
I349
I316
tp4281
a(I30
I348
I316
tp4282
a(I31
I347
I317
tp4283
a(I31
I346
I317
tp4284
a(I32
I345
I318
tp4285
a(I33
I344
I318
tp4286
a(I34
I343
I318
tp4287
a(I35
I343
I319
tp4288
a(I36
I342
I319
tp4289
a(I37
I341
I320
tp4290
a(I38
I341
I319
tp4291
a(I39
I340
I320
tp4292
a(I40
I340
I321
tp4293
a(I41
I339
I321
tp4294
a(I42
I339
I321
tp4295
a(I43
I339
I321
tp4296
a(I44
I338
I322
tp4297
a(I45
I338
I322
tp4298
a(I46
I338
I323
tp4299
a(I47
I337
I323
tp4300
a(I48
I337
I323
tp4301
a(I49
I337
I323
tp4302
a(I50
I336
I324
tp4303
a(I51
I336
I324
tp4304
a(I52
I336
I324
tp4305
a(I53
I336
I324
tp4306
a(I54
I335
I324
tp4307
a(I55
I335
I324
tp4308
a(I56
I335
I325
tp4309
a(I57
I335
I325
tp4310
a(I58
I335
I325
tp4311
a(I59
I334
I325
tp4312
a(I60
I334
I325
tp4313
a(I61
I334
I325
tp4314
a(I62
I334
I325
tp4315
a(I63
I334
I325
tp4316
a(I64
I334
I325
tp4317
a(I65
I333
I326
tp4318
a(I66
I333
I326
tp4319
a(I67
I333
I326
tp4320
a(I68
I333
I326
tp4321
a(I69
I333
I326
tp4322
a(I70
I333
I326
tp4323
a(I71
I333
I326
tp4324
a(I72
I333
I326
tp4325
a(I73
I333
I326
tp4326
a(I74
I333
I326
tp4327
a(I75
I333
I326
tp4328
a(I76
I333
I325
tp4329
a(I77
I333
I325
tp4330
a(I78
I333
I325
tp4331
a(I79
I333
I325
tp4332
a(I80
I333
I325
tp4333
a(I81
I333
I325
tp4334
a(I82
I333
I325
tp4335
a(I83
I333
I325
tp4336
a(I84
I333
I324
tp4337
a(I85
I333
I324
tp4338
a(I86
I334
I324
tp4339
a(I87
I334
I324
tp4340
a(I88
I334
I324
tp4341
a(I89
I334
I324
tp4342
a(I90
I334
I324
tp4343
a(I91
I334
I323
tp4344
a(I92
I335
I323
tp4345
a(I93
I335
I323
tp4346
a(I94
I335
I323
tp4347
a(I95
I335
I322
tp4348
a(I96
I336
I322
tp4349
a(I97
I336
I322
tp4350
a(I98
I336
I321
tp4351
a(I99
I337
I321
tp4352
a(I100
I337
I321
tp4353
a(I101
I337
I320
tp4354
a(I102
I338
I320
tp4355
a(I103
I338
I319
tp4356
a(I104
I339
I318
tp4357
a(I105
I339
I319
tp4358
a(I106
I340
I319
tp4359
a(I107
I340
I318
tp4360
a(I108
I341
I317
tp4361
a(I109
I341
I317
tp4362
a(I110
I342
I316
tp4363
a(I111
I343
I316
tp4364
a(I112
I343
I315
tp4365
a(I113
I344
I314
tp4366
a(I114
I345
I314
tp4367
a(I115
I345
I313
tp4368
a(I116
I346
I312
tp4369
a(I117
I347
I312
tp4370
a(I118
I348
I311
tp4371
a(I119
I349
I310
tp4372
a(I119
I350
I310
tp4373
a(I120
I351
I309
tp4374
a(I121
I352
I309
tp4375
a(I121
I353
I309
tp4376
a(I122
I354
I308
tp4377
a(I122
I355
I308
tp4378
a(I123
I356
I307
tp4379
a(I124
I356
I306
tp4380
a(I125
I356
I305
tp4381
a(I126
I356
I304
tp4382
a(I127
I355
I303
tp4383
a(I128
I355
I302
tp4384
a(I128
I355
I301
tp4385
a(I129
I354
I300
tp4386
a(I130
I354
I299
tp4387
a(I131
I353
I298
tp4388
a(I132
I352
I297
tp4389
a(I132
I352
I296
tp4390
a(I132
I352
I295
tp4391
a(I133
I352
I294
tp4392
a(I134
I351
I293
tp4393
a(I134
I351
I292
tp4394
a(I135
I350
I291
tp4395
a(I136
I349
I290
tp4396
a(I136
I349
I289
tp4397
a(I136
I349
I288
tp4398
a(I136
I349
I287
tp4399
a(I136
I349
I286
tp4400
a(I137
I348
I285
tp4401
a(I137
I348
I284
tp4402
a(I137
I348
I283
tp4403
a(I138
I347
I282
tp4404
a(I138
I347
I281
tp4405
a(I138
I347
I280
tp4406
a(I139
I346
I279
tp4407
a(I139
I346
I278
tp4408
a(I140
I345
I277
tp4409
a(I140
I345
I276
tp4410
a(I140
I345
I275
tp4411
a(I140
I345
I274
tp4412
a(I140
I345
I273
tp4413
a(I140
I345
I272
tp4414
a(I140
I345
I271
tp4415
a(I140
I345
I270
tp4416
a(I140
I345
I269
tp4417
a(I140
I345
I268
tp4418
a(I140
I345
I267
tp4419
a(I139
I346
I266
tp4420
a(I139
I346
I265
tp4421
a(I138
I347
I264
tp4422
a(I138
I347
I263
tp4423
a(I139
I346
I262
tp4424
a(I139
I346
I261
tp4425
a(I139
I346
I260
tp4426
a(I140
I345
I259
tp4427
a(I140
I345
I258
tp4428
a(I141
I344
I257
tp4429
a(I141
I343
I257
tp4430
a(I142
I342
I256
tp4431
a(I143
I341
I256
tp4432
a(I144
I340
I255
tp4433
a(I145
I339
I254
tp4434
a(I145
I338
I254
tp4435
a(I146
I337
I253
tp4436
a(I145
I338
I252
tp4437
a(I145
I339
I252
tp4438
a(I144
I340
I251
tp4439
a(I144
I340
I250
tp4440
a(I144
I340
I249
tp4441
a(I144
I340
I248
tp4442
a(I143
I341
I247
tp4443
a(I143
I341
I246
tp4444
a(I142
I342
I245
tp4445
a(I142
I342
I244
tp4446
a(I141
I343
I243
tp4447
a(I141
I343
I242
tp4448
a(I141
I343
I241
tp4449
a(I141
I344
I240
tp4450
a(I140
I345
I239
tp4451
a(I140
I345
I238
tp4452
a(I140
I345
I237
tp4453
a(I140
I345
I236
tp4454
a(I140
I345
I235
tp4455
a(I140
I345
I234
tp4456
a(I139
I346
I233
tp4457
a(I139
I346
I232
tp4458
a(I139
I346
I231
tp4459
a(I139
I346
I230
tp4460
a(I140
I345
I229
tp4461
a(I140
I345
I228
tp4462
a(I140
I345
I227
tp4463
a(I140
I345
I226
tp4464
a(I140
I345
I225
tp4465
a(I140
I345
I224
tp4466
a(I140
I345
I223
tp4467
a(I141
I344
I222
tp4468
a(I141
I343
I221
tp4469
a(I141
I343
I220
tp4470
a(I141
I343
I219
tp4471
a(I142
I342
I218
tp4472
a(I142
I342
I217
tp4473
a(I143
I341
I216
tp4474
a(I143
I341
I215
tp4475
a(I143
I341
I214
tp4476
a(I144
I340
I213
tp4477
a(I144
I340
I212
tp4478
a(I144
I340
I211
tp4479
a(I145
I339
I210
tp4480
a(I145
I338
I210
tp4481
a(I146
I337
I209
tp4482
a(I146
I337
I208
tp4483
a(I146
I337
I207
tp4484
a(I146
I337
I206
tp4485
a(I146
I337
I205
tp4486
a(I147
I336
I204
tp4487
a(I148
I335
I203
tp4488
a(I148
I334
I202
tp4489
a(I148
I334
I201
tp4490
a(I149
I333
I200
tp4491
a(I150
I332
I199
tp4492
a(I150
I331
I199
tp4493
a(I151
I330
I198
tp4494
a(I152
I329
I197
tp4495
a(I152
I328
I196
tp4496
a(I153
I327
I195
tp4497
a(I154
I326
I195
tp4498
a(I154
I325
I195
tp4499
a(I155
I324
I194
tp4500
a(I155
I323
I194
tp4501
a(I156
I322
I193
tp4502
a(I156
I321
I192
tp4503
a(I157
I320
I191
tp4504
a(I158
I319
I190
tp4505
a(I158
I318
I190
tp4506
a(I159
I317
I189
tp4507
a(I159
I316
I189
tp4508
a(I160
I315
I188
tp4509
a(I160
I314
I188
tp4510
a(I161
I313
I187
tp4511
a(I161
I312
I187
tp4512
a(I162
I311
I187
tp4513
a(I162
I310
I187
tp4514
a(I162
I309
I187
tp4515
a(I163
I308
I186
tp4516
a(I163
I307
I186
tp4517
a(I164
I306
I185
tp4518
a(I164
I305
I185
tp4519
a(I165
I304
I185
tp4520
a(I165
I303
I185
tp4521
a(I165
I302
I185
tp4522
a(I166
I301
I185
tp4523
a(I166
I300
I185
tp4524
a(I166
I299
I185
tp4525
a(I167
I298
I184
tp4526
a(I167
I297
I184
tp4527
a(I167
I296
I184
tp4528
a(I168
I295
I184
tp4529
a(I168
I294
I184
tp4530
a(I168
I293
I184
tp4531
a(I168
I292
I184
tp4532
a(I169
I291
I184
tp4533
a(I169
I290
I184
tp4534
a(I169
I289
I184
tp4535
a(I169
I288
I184
tp4536
a(I169
I287
I184
tp4537
a(I170
I286
I184
tp4538
a(I170
I285
I184
tp4539
a(I170
I284
I184
tp4540
a(I170
I283
I184
tp4541
a(I170
I282
I184
tp4542
a(I170
I281
I184
tp4543
a(I170
I280
I184
tp4544
a(I170
I279
I184
tp4545
a(I171
I278
I184
tp4546
a(I171
I277
I184
tp4547
a(I171
I276
I184
tp4548
a(I171
I275
I184
tp4549
a(I171
I274
I184
tp4550
a(I170
I273
I184
tp4551
a(I170
I272
I184
tp4552
a(I170
I271
I184
tp4553
a(I169
I270
I184
tp4554
a(I169
I269
I184
tp4555
a(I169
I268
I184
tp4556
a(I169
I267
I184
tp4557
a(I169
I266
I184
tp4558
a(I168
I265
I184
tp4559
a(I168
I264
I184
tp4560
a(I168
I263
I184
tp4561
a(I168
I262
I184
tp4562
a(I167
I261
I184
tp4563
a(I167
I260
I184
tp4564
a(I167
I259
I184
tp4565
a(I166
I258
I185
tp4566
a(I166
I257
I185
tp4567
a(I165
I256
I185
tp4568
a(I165
I255
I185
tp4569
a(I164
I254
I185
tp4570
a(I164
I253
I185
tp4571
a(I163
I252
I186
tp4572
a(I163
I251
I186
tp4573
a(I162
I250
I187
tp4574
a(I161
I249
I187
tp4575
a(I160
I248
I188
tp4576
a(I159
I247
I189
tp4577
a(I158
I246
I190
tp4578
a(I157
I245
I191
tp4579
a(I156
I244
I192
tp4580
a(I156
I244
I193
tp4581
a(I155
I243
I194
tp4582
a(I155
I243
I194
tp4583
a(I156
I244
I193
tp4584
a(I156
I244
I192
tp4585
a(I157
I245
I191
tp4586
a(I158
I246
I190
tp4587
a(I159
I247
I189
tp4588
a(I160
I248
I188
tp4589
a(I161
I249
I187
tp4590
a(I162
I250
I187
tp4591
a(I163
I251
I186
tp4592
a(I164
I253
I185
tp4593
a(I165
I255
I185
tp4594
a(I166
I257
I185
tp4595
a(I167
I259
I184
tp4596
a(I168
I262
I184
tp4597
a(I169
I266
I184
tp4598
a(I170
I271
I184
tp4599
a(I171
I274
I184
tp4600
a(I172
I274
I185
tp4601
a(I173
I274
I186
tp4602
a(I174
I274
I187
tp4603
a(I175
I274
I188
tp4604
a(I175
I274
I189
tp4605
a(I175
I274
I190
tp4606
a(I175
I274
I191
tp4607
a(I174
I274
I192
tp4608
a(I173
I274
I193
tp4609
a(I173
I274
I194
tp4610
a(I172
I274
I195
tp4611
a(I172
I274
I196
tp4612
a(I171
I274
I197
tp4613
a(I170
I273
I198
tp4614
a(I170
I272
I198
tp4615
a(I170
I271
I198
tp4616
a(I169
I270
I199
tp4617
a(I169
I270
I199
tp4618
a(I169
I269
I199
tp4619
a(I169
I268
I199
tp4620
a(I169
I267
I199
tp4621
a(I169
I266
I199
tp4622
a(I168
I265
I200
tp4623
a(I168
I265
I200
tp4624
a(I168
I265
I201
tp4625
a(I168
I264
I201
tp4626
a(I168
I263
I200
tp4627
a(I168
I262
I201
tp4628
a(I167
I261
I202
tp4629
a(I167
I261
I202
tp4630
a(I167
I260
I202
tp4631
a(I167
I259
I202
tp4632
a(I166
I258
I202
tp4633
a(I166
I258
I202
tp4634
a(I166
I257
I202
tp4635
a(I165
I256
I203
tp4636
a(I165
I256
I203
tp4637
a(I165
I255
I203
tp4638
a(I164
I254
I204
tp4639
a(I164
I254
I204
tp4640
a(I164
I253
I204
tp4641
a(I163
I252
I205
tp4642
a(I163
I252
I205
tp4643
a(I163
I251
I205
tp4644
a(I162
I250
I206
tp4645
a(I162
I250
I206
tp4646
a(I161
I249
I206
tp4647
a(I160
I248
I207
tp4648
a(I159
I247
I207
tp4649
a(I158
I246
I208
tp4650
a(I157
I245
I208
tp4651
a(I156
I244
I209
tp4652
a(I155
I243
I209
tp4653
a(I154
I141
I210
tp4654
a(I153
I137
I210
tp4655
a(I152
I134
I210
tp4656
a(I151
I131
I210
tp4657
a(I150
I130
I211
tp4658
a(I149
I128
I211
tp4659
a(I148
I127
I211
tp4660
a(I147
I126
I211
tp4661
a(I146
I125
I211
tp4662
a(I145
I124
I210
tp4663
a(I144
I123
I209
tp4664
a(I143
I122
I209
tp4665
a(I142
I122
I208
tp4666
a(I141
I194
I207
tp4667
a(I141
I194
I206
tp4668
a(I140
I195
I205
tp4669
a(I140
I195
I204
tp4670
a(I140
I195
I203
tp4671
a(I140
I195
I202
tp4672
a(I140
I195
I201
tp4673
a(I139
I196
I200
tp4674
a(I139
I196
I199
tp4675
a(I139
I196
I198
tp4676
a(I139
I196
I197
tp4677
a(I139
I196
I196
tp4678
a(I140
I195
I195
tp4679
a(I140
I195
I194
tp4680
a(I140
I195
I193
tp4681
a(I140
I195
I192
tp4682
a(I140
I195
I191
tp4683
a(I140
I195
I190
tp4684
a(I140
I195
I189
tp4685
a(I140
I195
I188
tp4686
a(I140
I195
I187
tp4687
a(I140
I195
I186
tp4688
a(I140
I195
I185
tp4689
a(I139
I196
I184
tp4690
a(I139
I196
I183
tp4691
a(I139
I196
I182
tp4692
a(I139
I196
I181
tp4693
a(I139
I196
I180
tp4694
a(I138
I197
I179
tp4695
a(I138
I197
I178
tp4696
a(I138
I197
I177
tp4697
a(I138
I197
I176
tp4698
a(I138
I197
I175
tp4699
a(I138
I197
I174
tp4700
a(I137
I198
I173
tp4701
a(I137
I198
I172
tp4702
a(I136
I198
I171
tp4703
a(I136
I198
I170
tp4704
a(I136
I198
I169
tp4705
a(I136
I198
I168
tp4706
a(I135
I199
I167
tp4707
a(I134
I200
I166
tp4708
a(I134
I200
I165
tp4709
a(I133
I200
I164
tp4710
a(I132
I201
I163
tp4711
a(I132
I201
I162
tp4712
a(I132
I201
I161
tp4713
a(I131
I201
I160
tp4714
a(I130
I201
I159
tp4715
a(I129
I202
I158
tp4716
a(I128
I202
I157
tp4717
a(I127
I202
I156
tp4718
a(I126
I203
I155
tp4719
a(I125
I203
I154
tp4720
a(I124
I203
I153
tp4721
a(I123
I203
I152
tp4722
a(I122
I203
I151
tp4723
a(I121
I204
I151
tp4724
a(I120
I204
I150
tp4725
a(I119
I204
I149
tp4726
a(I118
I204
I148
tp4727
a(I117
I204
I148
tp4728
a(I116
I204
I147
tp4729
a(I115
I204
I146
tp4730
a(I114
I204
I146
tp4731
a(I113
I204
I145
tp4732
a(I112
I204
I145
tp4733
a(I111
I204
I144
tp4734
a(I110
I204
I143
tp4735
a(I109
I204
I142
tp4736
a(I108
I204
I142
tp4737
a(I107
I204
I142
tp4738
a(I106
I204
I142
tp4739
a(I105
I204
I142
tp4740
a(I104
I204
I141
tp4741
a(I103
I204
I141
tp4742
a(I102
I204
I140
tp4743
a(I101
I204
I140
tp4744
a(I100
I204
I140
tp4745
a(I99
I204
I140
tp4746
a(I98
I204
I139
tp4747
a(I97
I204
I139
tp4748
a(I96
I204
I139
tp4749
a(I95
I204
I138
tp4750
a(I94
I204
I138
tp4751
a(I93
I204
I138
tp4752
a(I92
I204
I138
tp4753
a(I91
I203
I138
tp4754
a(I90
I203
I138
tp4755
a(I89
I203
I137
tp4756
a(I88
I203
I137
tp4757
a(I87
I203
I137
tp4758
a(I86
I203
I137
tp4759
a(I85
I203
I137
tp4760
a(I84
I203
I137
tp4761
a(I83
I203
I137
tp4762
a(I82
I203
I137
tp4763
a(I81
I203
I137
tp4764
a(I80
I203
I137
tp4765
a(I79
I203
I137
tp4766
a(I78
I203
I137
tp4767
a(I77
I203
I137
tp4768
a(I76
I203
I137
tp4769
a(I75
I204
I137
tp4770
a(I74
I204
I137
tp4771
a(I73
I204
I137
tp4772
a(I72
I204
I137
tp4773
a(I71
I204
I138
tp4774
a(I70
I204
I138
tp4775
a(I69
I204
I138
tp4776
a(I68
I204
I138
tp4777
a(I67
I204
I138
tp4778
a(I66
I204
I139
tp4779
a(I65
I204
I139
tp4780
a(I64
I204
I139
tp4781
a(I63
I204
I139
tp4782
a(I62
I203
I140
tp4783
a(I61
I203
I140
tp4784
a(I60
I203
I140
tp4785
a(I59
I203
I141
tp4786
a(I58
I203
I141
tp4787
a(I57
I203
I141
tp4788
a(I56
I202
I142
tp4789
a(I55
I202
I142
tp4790
a(I54
I202
I143
tp4791
a(I53
I202
I143
tp4792
a(I52
I202
I143
tp4793
a(I51
I202
I144
tp4794
a(I50
I202
I144
tp4795
a(I49
I202
I145
tp4796
a(I48
I202
I145
tp4797
a(I47
I202
I146
tp4798
a(I46
I201
I146
tp4799
a(I45
I201
I147
tp4800
a(I44
I201
I147
tp4801
a(I44
I201
I148
tp4802
a(I43
I201
I149
tp4803
a(I42
I201
I149
tp4804
a(I41
I201
I150
tp4805
a(I40
I200
I150
tp4806
a(I39
I200
I151
tp4807
a(I38
I200
I152
tp4808
a(I37
I200
I152
tp4809
a(I36
I199
I153
tp4810
a(I36
I199
I154
tp4811
a(I35
I199
I155
tp4812
a(I34
I199
I155
tp4813
a(I33
I198
I156
tp4814
a(I32
I198
I157
tp4815
a(I31
I197
I158
tp4816
a(I30
I197
I159
tp4817
a(I29
I196
I160
tp4818
a(I28
I196
I161
tp4819
a(I28
I196
I162
tp4820
a(I27
I195
I163
tp4821
a(I26
I194
I164
tp4822
a(I25
I194
I165
tp4823
a(I24
I193
I166
tp4824
a(I24
I193
I167
tp4825
a(I24
I193
I168
tp4826
a(I24
I193
I169
tp4827
a(I25
I194
I169
tp4828
a(I26
I194
I168
tp4829
a(I27
I195
I167
tp4830
a(I28
I196
I166
tp4831
a(I29
I196
I165
tp4832
a(I30
I197
I165
tp4833
a(I31
I197
I164
tp4834
a(I32
I198
I163
tp4835
a(I33
I198
I163
tp4836
a(I34
I199
I162
tp4837
a(I35
I199
I162
tp4838
a(I36
I199
I162
tp4839
a(I37
I200
I162
tp4840
a(I38
I200
I163
tp4841
a(I39
I200
I163
tp4842
a(I40
I200
I164
tp4843
a(I41
I201
I164
tp4844
a(I42
I201
I165
tp4845
a(I42
I201
I166
tp4846
a(I43
I201
I167
tp4847
a(I43
I201
I168
tp4848
a(I43
I201
I169
tp4849
a(I43
I201
I170
tp4850
a(I43
I201
I171
tp4851
a(I43
I201
I172
tp4852
a(I43
I201
I173
tp4853
a(I43
I201
I174
tp4854
a(I42
I201
I175
tp4855
a(I42
I201
I176
tp4856
a(I41
I201
I177
tp4857
a(I41
I201
I178
tp4858
a(I40
I200
I179
tp4859
a(I40
I200
I180
tp4860
a(I40
I200
I181
tp4861
a(I39
I200
I182
tp4862
a(I38
I200
I183
tp4863
a(I37
I200
I184
tp4864
a(I36
I199
I185
tp4865
a(I36
I199
I186
tp4866
a(I35
I199
I187
tp4867
a(I34
I199
I188
tp4868
a(I33
I198
I188
tp4869
a(I32
I198
I189
tp4870
a(I32
I198
I190
tp4871
a(I31
I197
I191
tp4872
a(I30
I197
I192
tp4873
a(I29
I196
I192
tp4874
a(I28
I196
I193
tp4875
a(I27
I195
I194
tp4876
a(I26
I194
I195
tp4877
a(I25
I194
I196
tp4878
a(I26
I194
I197
tp4879
a(I27
I195
I197
tp4880
a(I28
I196
I197
tp4881
a(I29
I196
I196
tp4882
a(I30
I197
I196
tp4883
a(I31
I197
I196
tp4884
a(I32
I198
I196
tp4885
a(I33
I198
I196
tp4886
a(I34
I199
I196
tp4887
a(I35
I199
I196
tp4888
a(I36
I199
I195
tp4889
a(I37
I200
I195
tp4890
a(I38
I200
I195
tp4891
a(I39
I200
I195
tp4892
a(I40
I200
I194
tp4893
a(I41
I201
I194
tp4894
a(I42
I201
I194
tp4895
a(I43
I201
I194
tp4896
a(I44
I201
I194
tp4897
a(I45
I201
I194
tp4898
a(I46
I201
I193
tp4899
a(I47
I202
I193
tp4900
a(I48
I202
I193
tp4901
a(I49
I202
I192
tp4902
a(I50
I202
I192
tp4903
a(I51
I202
I192
tp4904
a(I52
I202
I191
tp4905
a(I53
I202
I191
tp4906
a(I54
I202
I191
tp4907
a(I55
I202
I190
tp4908
a(I56
I202
I190
tp4909
a(I57
I203
I190
tp4910
a(I58
I203
I189
tp4911
a(I59
I203
I189
tp4912
a(I60
I203
I188
tp4913
a(I61
I203
I188
tp4914
a(I62
I203
I188
tp4915
a(I63
I204
I187
tp4916
a(I64
I204
I187
tp4917
a(I65
I204
I187
tp4918
a(I66
I204
I186
tp4919
a(I67
I204
I186
tp4920
a(I68
I204
I185
tp4921
a(I69
I204
I185
tp4922
a(I70
I204
I184
tp4923
a(I71
I204
I184
tp4924
a(I72
I204
I183
tp4925
a(I73
I204
I182
tp4926
a(I74
I204
I182
tp4927
a(I75
I204
I181
tp4928
a(I76
I203
I180
tp4929
a(I77
I203
I180
tp4930
a(I78
I203
I179
tp4931
a(I79
I203
I179
tp4932
a(I80
I203
I178
tp4933
a(I81
I203
I177
tp4934
a(I82
I203
I177
tp4935
a(I83
I203
I176
tp4936
a(I84
I203
I175
tp4937
a(I85
I203
I174
tp4938
a(I86
I203
I173
tp4939
a(I87
I203
I173
tp4940
a(I88
I203
I172
tp4941
a(I88
I203
I171
tp4942
a(I89
I203
I170
tp4943
a(I90
I203
I170
tp4944
a(I91
I203
I169
tp4945
a(I92
I204
I168
tp4946
a(I92
I204
I167
tp4947
a(I93
I204
I166
tp4948
a(I94
I204
I165
tp4949
a(I95
I204
I164
tp4950
a(I96
I204
I163
tp4951
a(I96
I204
I162
tp4952
a(I97
I204
I161
tp4953
a(I97
I204
I160
tp4954
a(I98
I204
I159
tp4955
a(I99
I204
I158
tp4956
a(I100
I204
I157
tp4957
a(I100
I204
I156
tp4958
a(I100
I204
I155
tp4959
a(I101
I204
I154
tp4960
a(I101
I204
I153
tp4961
a(I102
I204
I152
tp4962
a(I103
I204
I151
tp4963
a(I104
I204
I150
tp4964
a(I104
I204
I149
tp4965
a(I105
I204
I148
tp4966
a(I106
I204
I147
tp4967
a(I107
I204
I146
tp4968
a(I107
I204
I145
tp4969
a(I108
I204
I144
tp4970
a(I108
I204
I143
tp4971
a(I108
I204
I142
tp4972
a(I108
I204
I141
tp4973
a(I108
I204
I140
tp4974
a(I108
I204
I139
tp4975
a(I108
I204
I138
tp4976
a(I108
I204
I137
tp4977
a(I107
I204
I136
tp4978
a(I107
I204
I135
tp4979
a(I107
I204
I134
tp4980
a(I107
I204
I133
tp4981
a(I106
I204
I132
tp4982
a(I106
I204
I131
tp4983
a(I106
I204
I130
tp4984
a(I106
I204
I129
tp4985
a(I106
I204
I128
tp4986
a(I106
I204
I127
tp4987
a(I106
I204
I126
tp4988
a(I106
I204
I125
tp4989
a(I105
I204
I124
tp4990
a(I105
I204
I123
tp4991
a(I105
I204
I122
tp4992
a(I105
I204
I121
tp4993
a(I105
I204
I120
tp4994
a(I105
I204
I119
tp4995
a(I105
I204
I118
tp4996
a(I105
I204
I117
tp4997
a(I104
I204
I116
tp4998
a(I104
I204
I115
tp4999
a(I104
I204
I114
tp5000
a(I104
I204
I113
tp5001
a(I104
I204
I112
tp5002
a(I104
I204
I111
tp5003
a(I104
I204
I110
tp5004
a(I104
I204
I109
tp5005
a(I103
I204
I108
tp5006
a(I103
I204
I107
tp5007
a(I103
I204
I106
tp5008
a(I103
I204
I105
tp5009
a(I102
I204
I105
tp5010
a(I102
I204
I104
tp5011
a(I102
I204
I103
tp5012
a(I102
I204
I102
tp5013
a(I101
I204
I101
tp5014
a(I101
I204
I100
tp5015
a(I100
I204
I99
tp5016
a(I100
I204
I98
tp5017
a(I100
I204
I97
tp5018
a(I100
I204
I96
tp5019
a(I100
I204
I95
tp5020
a(I99
I204
I94
tp5021
a(I99
I204
I93
tp5022
a(I98
I204
I92
tp5023
a(I98
I204
I91
tp5024
a(I98
I204
I90
tp5025
a(I97
I204
I89
tp5026
a(I97
I204
I88
tp5027
a(I96
I204
I87
tp5028
a(I96
I204
I86
tp5029
a(I95
I204
I85
tp5030
a(I95
I204
I84
tp5031
a(I94
I204
I83
tp5032
a(I93
I204
I82
tp5033
a(I92
I204
I81
tp5034
a(I92
I204
I80
tp5035
a(I91
I203
I79
tp5036
a(I90
I203
I78
tp5037
a(I89
I203
I77
tp5038
a(I88
I203
I76
tp5039
a(I87
I203
I75
tp5040
a(I86
I203
I74
tp5041
a(I85
I203
I73
tp5042
a(I84
I203
I73
tp5043
a(I84
I203
I72
tp5044
a(I83
I203
I71
tp5045
a(I82
I203
I71
tp5046
a(I81
I203
I70
tp5047
a(I80
I203
I70
tp5048
a(I79
I203
I69
tp5049
a(I78
I203
I68
tp5050
a(I77
I203
I68
tp5051
a(I76
I203
I68
tp5052
a(I75
I204
I67
tp5053
a(I74
I204
I67
tp5054
a(I73
I204
I66
tp5055
a(I72
I204
I66
tp5056
a(I71
I204
I66
tp5057
a(I70
I204
I65
tp5058
a(I69
I204
I65
tp5059
a(I68
I204
I65
tp5060
a(I67
I204
I65
tp5061
a(I66
I204
I64
tp5062
a(I65
I204
I64
tp5063
a(I64
I204
I64
tp5064
a(I63
I204
I64
tp5065
a(I62
I203
I64
tp5066
a(I61
I203
I64
tp5067
a(I60
I203
I64
tp5068
a(I59
I203
I64
tp5069
a(I58
I203
I64
tp5070
a(I57
I203
I64
tp5071
a(I56
I202
I64
tp5072
a(I55
I202
I64
tp5073
a(I54
I202
I64
tp5074
a(I53
I202
I64
tp5075
a(I52
I202
I64
tp5076
a(I51
I202
I64
tp5077
a(I50
I202
I64
tp5078
a(I49
I202
I64
tp5079
a(I48
I202
I64
tp5080
a(I47
I202
I64
tp5081
a(I46
I201
I65
tp5082
a(I45
I201
I65
tp5083
a(I44
I201
I65
tp5084
a(I43
I201
I65
tp5085
a(I42
I201
I66
tp5086
a(I41
I201
I66
tp5087
a(I40
I200
I66
tp5088
a(I39
I200
I66
tp5089
a(I38
I200
I66
tp5090
a(I37
I200
I67
tp5091
a(I36
I199
I67
tp5092
a(I35
I199
I67
tp5093
a(I34
I199
I68
tp5094
a(I33
I198
I68
tp5095
a(I32
I198
I68
tp5096
a(I31
I197
I68
tp5097
a(I30
I197
I69
tp5098
a(I29
I196
I69
tp5099
a(I28
I196
I69
tp5100
a(I28
I196
I70
tp5101
a(I27
I195
I71
tp5102
a(I26
I194
I71
tp5103
a(I26
I194
I70
tp5104
a(I26
I194
I69
tp5105
a(I27
I195
I68
tp5106
a(I28
I196
I67
tp5107
a(I28
I196
I66
tp5108
a(I29
I196
I65
tp5109
a(I30
I197
I64
tp5110
a(I31
I41
I63
tp5111
a(I32
I38
I62
tp5112
a(I33
I35
I61
tp5113
a(I34
I33
I60
tp5114
a(I35
I31
I60
tp5115
a(I36
I59
I59
tp5116
a(I36
I30
I58
tp5117
a(I37
I29
I58
tp5118
a(I38
I28
I57
tp5119
a(I39
I27
I56
tp5120
a(I40
I26
I55
tp5121
a(I41
I25
I55
tp5122
a(I42
I24
I54
tp5123
a(I43
I23
I54
tp5124
a(I44
I23
I53
tp5125
a(I45
I22
I52
tp5126
a(I46
I22
I52
tp5127
a(I47
I21
I52
tp5128
a(I48
I21
I51
tp5129
a(I49
I21
I50
tp5130
a(I50
I20
I50
tp5131
a(I51
I20
I50
tp5132
a(I52
I20
I49
tp5133
a(I53
I19
I49
tp5134
a(I54
I19
I48
tp5135
a(I55
I19
I48
tp5136
a(I56
I19
I48
tp5137
a(I57
I18
I47
tp5138
a(I58
I18
I47
tp5139
a(I59
I18
I47
tp5140
a(I60
I18
I47
tp5141
a(I61
I18
I47
tp5142
a(I62
I18
I47
tp5143
a(I63
I17
I47
tp5144
a(I64
I17
I46
tp5145
a(I65
I17
I46
tp5146
a(I66
I17
I46
tp5147
a(I67
I17
I46
tp5148
a(I68
I17
I46
tp5149
a(I69
I17
I46
tp5150
a(I70
I17
I46
tp5151
a(I71
I17
I46
tp5152
a(I72
I17
I46
tp5153
a(I73
I17
I46
tp5154
a(I74
I17
I46
tp5155
a(I75
I16
I47
tp5156
a(I76
I16
I47
tp5157
a(I77
I16
I47
tp5158
a(I78
I16
I47
tp5159
a(I79
I16
I47
tp5160
a(I80
I16
I47
tp5161
a(I81
I16
I48
tp5162
a(I82
I16
I48
tp5163
a(I83
I16
I48
tp5164
a(I84
I16
I49
tp5165
a(I85
I17
I49
tp5166
a(I86
I17
I49
tp5167
a(I87
I17
I50
tp5168
a(I88
I17
I50
tp5169
a(I89
I17
I51
tp5170
a(I90
I17
I51
tp5171
a(I91
I17
I52
tp5172
a(I92
I17
I53
tp5173
a(I93
I17
I53
tp5174
a(I94
I17
I53
tp5175
a(I95
I17
I54
tp5176
a(I96
I18
I55
tp5177
a(I97
I18
I55
tp5178
a(I98
I18
I56
tp5179
a(I99
I18
I56
tp5180
a(I100
I19
I57
tp5181
a(I101
I19
I58
tp5182
a(I102
I19
I59
tp5183
a(I103
I19
I59
tp5184
a(I104
I85
I60
tp5185
a(I104
I20
I61
tp5186
a(I105
I20
I61
tp5187
a(I106
I20
I62
tp5188
a(I107
I21
I62
tp5189
a(I108
I80
I63
tp5190
a(I108
I21
I64
tp5191
a(I109
I22
I65
tp5192
a(I110
I22
I65
tp5193
a(I111
I23
I66
tp5194
a(I112
I73
I67
tp5195
a(I112
I24
I68
tp5196
a(I113
I24
I69
tp5197
a(I114
I25
I69
tp5198
a(I115
I26
I70
tp5199
a(I116
I65
I71
tp5200
a(I116
I27
I72
tp5201
a(I117
I28
I73
tp5202
a(I118
I29
I74
tp5203
a(I119
I31
I75
tp5204
a(I120
I52
I76
tp5205
a(I120
I52
I77
tp5206
a(I120
I33
I78
tp5207
a(I121
I35
I79
tp5208
a(I122
I39
I80
tp5209
a(I123
I116
I81
tp5210
a(I123
I116
I82
tp5211
a(I124
I117
I83
tp5212
a(I124
I117
I84
tp5213
a(I124
I117
I85
tp5214
a(I125
I117
I86
tp5215
a(I125
I117
I87
tp5216
a(I126
I117
I88
tp5217
a(I127
I117
I89
tp5218
a(I127
I117
I90
tp5219
a(I128
I117
I91
tp5220
a(I128
I117
I92
tp5221
a(I128
I117
I93
tp5222
a(I128
I117
I94
tp5223
a(I128
I117
I95
tp5224
a(I129
I117
I96
tp5225
a(I129
I117
I97
tp5226
a(I129
I117
I98
tp5227
a(I130
I117
I99
tp5228
a(I130
I117
I100
tp5229
a(I130
I117
I101
tp5230
a(I130
I117
I102
tp5231
a(I131
I117
I103
tp5232
a(I131
I117
I104
tp5233
a(I131
I117
I105
tp5234
a(I131
I117
I106
tp5235
a(I131
I117
I107
tp5236
a(I132
I118
I108
tp5237
a(I132
I118
I109
tp5238
a(I132
I118
I110
tp5239
a(I132
I118
I111
tp5240
a(I132
I118
I112
tp5241
a(I132
I118
I113
tp5242
a(I132
I118
I114
tp5243
a(I132
I118
I115
tp5244
a(I132
I118
I116
tp5245
a(I132
I118
I117
tp5246
a(I132
I118
I118
tp5247
a(I132
I118
I119
tp5248
a(I132
I118
I120
tp5249
a(I132
I118
I121
tp5250
a(I132
I118
I122
tp5251
a(I132
I118
I123
tp5252
a(I131
I117
I124
tp5253
a(I131
I117
I125
tp5254
a(I131
I117
I126
tp5255
a(I131
I117
I127
tp5256
a(I131
I117
I128
tp5257
a(I130
I117
I129
tp5258
a(I130
I117
I130
tp5259
a(I130
I117
I131
tp5260
a(I130
I117
I132
tp5261
a(I129
I117
I133
tp5262
a(I129
I117
I134
tp5263
a(I128
I117
I135
tp5264
a(I128
I117
I136
tp5265
a(I128
I117
I137
tp5266
a(I128
I117
I138
tp5267
a(I128
I117
I139
tp5268
a(I129
I117
I138
tp5269
a(I130
I117
I137
tp5270
a(I131
I117
I136
tp5271
a(I132
I118
I135
tp5272
a(I132
I118
I134
tp5273
a(I132
I118
I133
tp5274
a(I133
I118
I132
tp5275
a(I134
I118
I131
tp5276
a(I134
I118
I130
tp5277
a(I135
I118
I129
tp5278
a(I135
I118
I128
tp5279
a(I136
I119
I127
tp5280
a(I136
I119
I126
tp5281
a(I136
I119
I125
tp5282
a(I136
I119
I124
tp5283
a(I137
I119
I123
tp5284
a(I137
I119
I122
tp5285
a(I138
I120
I121
tp5286
a(I138
I120
I120
tp5287
a(I138
I120
I119
tp5288
a(I139
I120
I118
tp5289
a(I139
I120
I117
tp5290
a(I139
I120
I116
tp5291
a(I140
I120
I115
tp5292
a(I140
I120
I114
tp5293
a(I140
I120
I113
tp5294
a(I140
I120
I112
tp5295
a(I140
I120
I111
tp5296
a(I140
I120
I110
tp5297
a(I140
I120
I109
tp5298
a(I140
I120
I108
tp5299
a(I140
I120
I107
tp5300
a(I140
I120
I106
tp5301
a(I141
I121
I105
tp5302
a(I141
I121
I104
tp5303
a(I141
I121
I103
tp5304
a(I141
I121
I102
tp5305
a(I141
I121
I101
tp5306
a(I141
I121
I100
tp5307
a(I141
I121
I99
tp5308
a(I141
I121
I98
tp5309
a(I141
I121
I97
tp5310
a(I141
I121
I96
tp5311
a(I141
I121
I95
tp5312
a(I141
I121
I94
tp5313
a(I141
I121
I93
tp5314
a(I140
I120
I92
tp5315
a(I140
I120
I91
tp5316
a(I140
I120
I90
tp5317
a(I140
I120
I89
tp5318
a(I140
I120
I88
tp5319
a(I140
I120
I87
tp5320
a(I140
I120
I86
tp5321
a(I140
I120
I85
tp5322
a(I140
I120
I84
tp5323
a(I140
I120
I83
tp5324
a(I140
I120
I82
tp5325
a(I140
I120
I81
tp5326
a(I139
I120
I80
tp5327
a(I139
I120
I79
tp5328
a(I139
I120
I78
tp5329
a(I138
I120
I77
tp5330
a(I138
I120
I76
tp5331
a(I138
I120
I75
tp5332
a(I137
I119
I74
tp5333
a(I137
I119
I73
tp5334
a(I136
I119
I72
tp5335
a(I136
I119
I71
tp5336
a(I136
I119
I70
tp5337
a(I136
I119
I69
tp5338
a(I136
I119
I68
tp5339
a(I135
I118
I67
tp5340
a(I134
I118
I66
tp5341
a(I134
I118
I65
tp5342
a(I133
I118
I64
tp5343
a(I132
I118
I63
tp5344
a(I132
I118
I62
tp5345
a(I132
I118
I61
tp5346
a(I131
I117
I60
tp5347
a(I131
I117
I59
tp5348
a(I130
I117
I58
tp5349
a(I129
I117
I57
tp5350
a(I128
I117
I56
tp5351
a(I128
I117
I55
tp5352
a(I127
I117
I54
tp5353
a(I127
I117
I53
tp5354
a(I126
I117
I52
tp5355
a(I125
I117
I51
tp5356
a(I124
I117
I50
tp5357
a(I124
I117
I49
tp5358
a(I123
I116
I48
tp5359
a(I122
I116
I47
tp5360
a(I121
I116
I46
tp5361
a(I120
I116
I46
tp5362
a(I120
I116
I45
tp5363
a(I119
I116
I44
tp5364
a(I118
I116
I43
tp5365
a(I117
I116
I42
tp5366
a(I116
I116
I41
tp5367
a(I116
I116
I40
tp5368
a(I115
I116
I39
tp5369
a(I114
I116
I39
tp5370
a(I113
I116
I38
tp5371
a(I112
I116
I37
tp5372
a(I112
I116
I36
tp5373
a(I111
I116
I35
tp5374
a(I110
I117
I35
tp5375
a(I109
I117
I34
tp5376
a(I108
I117
I33
tp5377
a(I107
I117
I32
tp5378
a(I106
I117
I31
tp5379
a(I105
I117
I30
tp5380
a(I104
I117
I30
tp5381
a(I104
I117
I29
tp5382
a(I103
I117
I28
tp5383
a(I102
I117
I27
tp5384
a(I101
I117
I27
tp5385
a(I100
I117
I26
tp5386
a(I99
I117
I25
tp5387
a(I98
I117
I24
tp5388
a(I97
I117
I24
tp5389
a(I96
I118
I23
tp5390
a(I95
I118
I22
tp5391
a(I94
I118
I21
tp5392
a(I93
I118
I20
tp5393
a(I92
I118
I20
tp5394
a(I91
I118
I19
tp5395
a(I90
I118
I18
tp5396
a(I89
I118
I18
tp5397
a(I88
I118
I17
tp5398
a(I87
I118
I16
tp5399
a(I86
I119
I15
tp5400
a(I85
I119
I15
tp5401
a(I84
I119
I14
tp5402
a(I83
I119
I13
tp5403
a(I82
I119
I12
tp5404
a(I81
I119
I12
tp5405
a(I80
I120
I11
tp5406
a(I79
I120
I10
tp5407
a(I78
I120
I10
tp5408
a(I77
I120
I9
tp5409
a(I76
I120
I9
tp5410
a(I75
I120
I8
tp5411
a(I74
I119
I7
tp5412
a(I73
I119
I7
tp5413
a(I72
I119
I6
tp5414
a(I71
I119
I5
tp5415
a(I70
I119
I5
tp5416
a(I69
I119
I4
tp5417
a(I68
I118
I4
tp5418
a(I67
I118
I3
tp5419
a.